ccopy_reg
_reconstructor
p1
(crepresentations
Solution
p2
c__builtin__
object
p3
NtRp4
(lp5
(lp6
F-1.8787561229382774
aF0.27510789212437059
aF2.646269521183088
aF5.7537532714655946
aF1.1015817983241729
aF-6.6473998491347874
aF8.1576129934046246
aF4.17128805662567
aF7.7396775555890862
aaF3634.0371109602447
aI1
a(lp7
ab.ccopy_reg
_reconstructor
p1
(crepresentations
Solution
p2
c__builtin__
object
p3
NtRp4
(lp5
(lp6
F2.7283835180260469
aF-2.312627879578625
aF-7.3797554170952591
aF9.3734279378119076
aF1.0805188056056765
aF-13.160938122898884
aF1.5973813934990098
aF8.388136852303095
aF11.964348042924815
aaF1993.4421703407811
aI2
a(lp7
ab.ccopy_reg
_reconstructor
p1
(crepresentations
Solution
p2
c__builtin__
object
p3
NtRp4
(lp5
(lp6
F4.6776822840556704
aF2.0179987996878541
aF-16.682515062040849
aF6.7821398420141596
aF5.1625126917884092
aF-19.203138023857687
aF-1.6231203595349024
aF10.219490250249487
aF19.933493029330883
aaF1283.4077697002479
aI3
a(lp7
ab.ccopy_reg
_reconstructor
p1
(crepresentations
Solution
p2
c__builtin__
object
p3
NtRp4
(lp5
(lp6
F0.71755060685196748
aF1.8588675773154124
aF-3.6670752385637666
aF3.1385066229096772
aF-10.942711686566076
aF-13.334292404899848
aF8.0394744071892248
aF4.6234629986236238
aF16.445713175041956
aaF1116.6108817790141
aI4
a(lp7
ab.ccopy_reg
_reconstructor
p1
(crepresentations
Solution
p2
c__builtin__
object
p3
NtRp4
(lp5
(lp6
F2.6485619603401265
aF1.3302363791560372
aF-2.0108582500378365
aF3.6905171299797854
aF-23.651718204267674
aF-22.172689572178889
aF8.3787216030022069
aF18.947462232783597
aF24.990039664332397
aaF976.76251938422286
aI5
a(lp7
ab.ccopy_reg
_reconstructor
p1
(crepresentations
Solution
p2
c__builtin__
object
p3
NtRp4
(lp5
(lp6
F2.6485619603401265
aF1.3302363791560372
aF-2.0108582500378365
aF3.6905171299797854
aF-23.651718204267674
aF-22.172689572178889
aF8.3787216030022069
aF18.947462232783597
aF24.990039664332397
aaF976.76251938422286
aI5
a(lp7
ab.ccopy_reg
_reconstructor
p1
(crepresentations
Solution
p2
c__builtin__
object
p3
NtRp4
(lp5
(lp6
F2.3401410415126107
aF3.5983756238182307
aF0.52235935949959122
aF3.7755210460249375
aF-19.989689676752178
aF-24.567058532449675
aF6.2554575608033991
aF12.674201747885181
aF20.824101334666658
aaF833.45838569114994
aI7
a(lp7
ab.ccopy_reg
_reconstructor
p1
(crepresentations
Solution
p2
c__builtin__
object
p3
NtRp4
(lp5
(lp6
F2.3401410415126107
aF3.5983756238182307
aF0.52235935949959122
aF3.7755210460249375
aF-19.989689676752178
aF-24.567058532449675
aF6.2554575608033991
aF12.674201747885181
aF20.824101334666658
aaF833.45838569114994
aI7
a(lp7
ab.ccopy_reg
_reconstructor
p1
(crepresentations
Solution
p2
c__builtin__
object
p3
NtRp4
(lp5
(lp6
F2.3401410415126107
aF3.5983756238182307
aF0.52235935949959122
aF3.7755210460249375
aF-19.989689676752178
aF-24.567058532449675
aF6.2554575608033991
aF12.674201747885181
aF20.824101334666658
aaF833.45838569114994
aI7
a(lp7
ab.ccopy_reg
_reconstructor
p1
(crepresentations
Solution
p2
c__builtin__
object
p3
NtRp4
(lp5
(lp6
F2.1355470475785006
aF2.949513863305552
aF4.8451874984822432
aF5.1918907173574764
aF-19.618048140391807
aF-19.399090591564864
aF-8.1666811447111343
aF8.5552098287769773
aF28.688223762126967
aaF670.90411563862097
aI10
a(lp7
ab.ccopy_reg
_reconstructor
p1
(crepresentations
Solution
p2
c__builtin__
object
p3
NtRp4
(lp5
(lp6
F1.6149242903441385
aF-1.2150013274567
aF4.5081234381747173
aF10.37666133551296
aF-15.300980891377108
aF-15.111429635884017
aF-17.070689012442955
aF4.8676509943408597
aF34.964146218773969
aaF406.53789617522369
aI11
a(lp7
ab.ccopy_reg
_reconstructor
p1
(crepresentations
Solution
p2
c__builtin__
object
p3
NtRp4
(lp5
(lp6
F1.6149242903441385
aF-1.2150013274567
aF4.5081234381747173
aF10.37666133551296
aF-15.300980891377108
aF-15.111429635884017
aF-17.070689012442955
aF4.8676509943408597
aF34.964146218773969
aaF406.53789617522369
aI11
a(lp7
ab.ccopy_reg
_reconstructor
p1
(crepresentations
Solution
p2
c__builtin__
object
p3
NtRp4
(lp5
(lp6
F-1.5712643981228485
aF-2.7845184380040435
aF14.568684741004052
aF12.682457459556316
aF-19.304667899693214
aF-12.959651595716556
aF-36.514698901167776
aF1.8760927496155233
aF50.552738111480366
aaF351.8276485689284
aI13
a(lp7
ab.ccopy_reg
_reconstructor
p1
(crepresentations
Solution
p2
c__builtin__
object
p3
NtRp4
(lp5
(lp6
F-1.5712643981228485
aF-2.7845184380040435
aF14.568684741004052
aF12.682457459556316
aF-19.304667899693214
aF-12.959651595716556
aF-36.514698901167776
aF1.8760927496155233
aF50.552738111480366
aaF351.8276485689284
aI13
a(lp7
ab.ccopy_reg
_reconstructor
p1
(crepresentations
Solution
p2
c__builtin__
object
p3
NtRp4
(lp5
(lp6
F1.3064368257317007
aF1.1510094214494755
aF7.1712041403845745
aF2.574278992369484
aF-16.396994447342639
aF-14.280295572126075
aF-26.858858322244039
aF11.405449441925692
aF42.737396154422001
aaF264.72173924432485
aI15
a(lp7
ab.ccopy_reg
_reconstructor
p1
(crepresentations
Solution
p2
c__builtin__
object
p3
NtRp4
(lp5
(lp6
F1.6324490679547821
aF-0.89697205672151625
aF0.79854830883502537
aF-0.15059103937546103
aF7.5753719262706767
aF-1.0100984570904394
aF-59.796495592896278
aF2.9482544104552311
aF55.726940502840343
aaF178.39052425396483
aI16
a(lp7
ab.ccopy_reg
_reconstructor
p1
(crepresentations
Solution
p2
c__builtin__
object
p3
NtRp4
(lp5
(lp6
F0.1690699538517173
aF0.54474342283657284
aF-3.4723990240927449
aF0.18376200663636738
aF34.123489263183764
aF-0.13294899461339582
aF-88.326815990195669
aF0.75277994660566838
aF62.833920667886474
aaF173.49923681956682
aI17
a(lp7
ab.ccopy_reg
_reconstructor
p1
(crepresentations
Solution
p2
c__builtin__
object
p3
NtRp4
(lp5
(lp6
F0.1690699538517173
aF0.54474342283657284
aF-3.4723990240927449
aF0.18376200663636738
aF34.123489263183764
aF-0.13294899461339582
aF-88.326815990195669
aF0.75277994660566838
aF62.833920667886474
aaF173.49923681956682
aI17
a(lp7
ab.ccopy_reg
_reconstructor
p1
(crepresentations
Solution
p2
c__builtin__
object
p3
NtRp4
(lp5
(lp6
F0.1690699538517173
aF0.54474342283657284
aF-3.4723990240927449
aF0.18376200663636738
aF34.123489263183764
aF-0.13294899461339582
aF-88.326815990195669
aF0.75277994660566838
aF62.833920667886474
aaF173.49923681956682
aI17
a(lp7
ab.ccopy_reg
_reconstructor
p1
(crepresentations
Solution
p2
c__builtin__
object
p3
NtRp4
(lp5
(lp6
F0.1690699538517173
aF0.54474342283657284
aF-3.4723990240927449
aF0.18376200663636738
aF34.123489263183764
aF-0.13294899461339582
aF-88.326815990195669
aF0.75277994660566838
aF62.833920667886474
aaF173.49923681956682
aI17
a(lp7
ab.ccopy_reg
_reconstructor
p1
(crepresentations
Solution
p2
c__builtin__
object
p3
NtRp4
(lp5
(lp6
F0.1690699538517173
aF0.54474342283657284
aF-3.4723990240927449
aF0.18376200663636738
aF34.123489263183764
aF-0.13294899461339582
aF-88.326815990195669
aF0.75277994660566838
aF62.833920667886474
aaF173.49923681956682
aI17
a(lp7
ab.ccopy_reg
_reconstructor
p1
(crepresentations
Solution
p2
c__builtin__
object
p3
NtRp4
(lp5
(lp6
F2.192064820192309
aF2.3473275586042623
aF-27.517226460252857
aF-4.6268672537633391
aF105.7504846046472
aF-1.4457393858560459
aF-164.14321705557774
aF2.8064551354839309
aF88.546826288713078
aaF101.60506733477446
aI22
a(lp7
ab.ccopy_reg
_reconstructor
p1
(crepresentations
Solution
p2
c__builtin__
object
p3
NtRp4
(lp5
(lp6
F2.192064820192309
aF2.3473275586042623
aF-27.517226460252857
aF-4.6268672537633391
aF105.7504846046472
aF-1.4457393858560459
aF-164.14321705557774
aF2.8064551354839309
aF88.546826288713078
aaF101.60506733477446
aI22
a(lp7
ab.ccopy_reg
_reconstructor
p1
(crepresentations
Solution
p2
c__builtin__
object
p3
NtRp4
(lp5
(lp6
F2.192064820192309
aF2.3473275586042623
aF-27.517226460252857
aF-4.6268672537633391
aF105.7504846046472
aF-1.4457393858560459
aF-164.14321705557774
aF2.8064551354839309
aF88.546826288713078
aaF101.60506733477446
aI22
a(lp7
ab.ccopy_reg
_reconstructor
p1
(crepresentations
Solution
p2
c__builtin__
object
p3
NtRp4
(lp5
(lp6
F2.192064820192309
aF2.3473275586042623
aF-27.517226460252857
aF-4.6268672537633391
aF105.7504846046472
aF-1.4457393858560459
aF-164.14321705557774
aF2.8064551354839309
aF88.546826288713078
aaF101.60506733477446
aI22
a(lp7
ab.ccopy_reg
_reconstructor
p1
(crepresentations
Solution
p2
c__builtin__
object
p3
NtRp4
(lp5
(lp6
F0.90126521614625399
aF4.2807194518210867
aF-6.6761349888270907
aF-15.130210540756842
aF48.480399914457635
aF10.847438555158602
aF-110.10652843106566
aF-0.036252962987940673
aF72.476584537980813
aaF91.132277974337129
aI26
a(lp7
ab.ccopy_reg
_reconstructor
p1
(crepresentations
Solution
p2
c__builtin__
object
p3
NtRp4
(lp5
(lp6
F0.90126521614625399
aF4.2807194518210867
aF-6.6761349888270907
aF-15.130210540756842
aF48.480399914457635
aF10.847438555158602
aF-110.10652843106566
aF-0.036252962987940673
aF72.476584537980813
aaF91.132277974337129
aI26
a(lp7
ab.ccopy_reg
_reconstructor
p1
(crepresentations
Solution
p2
c__builtin__
object
p3
NtRp4
(lp5
(lp6
F1.5327361454892481
aF1.7411642776702729
aF-13.74414727071143
aF-11.760858737427769
aF69.682265715657906
aF18.135861028279066
aF-136.79360489689526
aF-7.6365561949182652
aF82.12266486654687
aaF82.228555938984073
aI28
a(lp7
ab.ccopy_reg
_reconstructor
p1
(crepresentations
Solution
p2
c__builtin__
object
p3
NtRp4
(lp5
(lp6
F1.6131966649289955
aF-2.3193954127529084
aF-16.430039710785756
aF3.8764657174180233
aF96.526249880721053
aF-5.0590284128480292
aF-187.9632762395245
aF4.6510319334354104
aF109.82383399065796
aaF67.5123492967885
aI29
a(lp7
ab.ccopy_reg
_reconstructor
p1
(crepresentations
Solution
p2
c__builtin__
object
p3
NtRp4
(lp5
(lp6
F1.6131966649289955
aF-2.3193954127529084
aF-16.430039710785756
aF3.8764657174180233
aF96.526249880721053
aF-5.0590284128480292
aF-187.9632762395245
aF4.6510319334354104
aF109.82383399065796
aaF67.5123492967885
aI29
a(lp7
ab.ccopy_reg
_reconstructor
p1
(crepresentations
Solution
p2
c__builtin__
object
p3
NtRp4
(lp5
(lp6
F1.6131966649289955
aF-2.3193954127529084
aF-16.430039710785756
aF3.8764657174180233
aF96.526249880721053
aF-5.0590284128480292
aF-187.9632762395245
aF4.6510319334354104
aF109.82383399065796
aaF67.5123492967885
aI29
a(lp7
ab.ccopy_reg
_reconstructor
p1
(crepresentations
Solution
p2
c__builtin__
object
p3
NtRp4
(lp5
(lp6
F1.6131966649289955
aF-2.3193954127529084
aF-16.430039710785756
aF3.8764657174180233
aF96.526249880721053
aF-5.0590284128480292
aF-187.9632762395245
aF4.6510319334354104
aF109.82383399065796
aaF67.5123492967885
aI29
a(lp7
ab.ccopy_reg
_reconstructor
p1
(crepresentations
Solution
p2
c__builtin__
object
p3
NtRp4
(lp5
(lp6
F1.6131966649289955
aF-2.3193954127529084
aF-16.430039710785756
aF3.8764657174180233
aF96.526249880721053
aF-5.0590284128480292
aF-187.9632762395245
aF4.6510319334354104
aF109.82383399065796
aaF67.5123492967885
aI29
a(lp7
ab.ccopy_reg
_reconstructor
p1
(crepresentations
Solution
p2
c__builtin__
object
p3
NtRp4
(lp5
(lp6
F1.6073851928007403
aF0.32619989079358147
aF-19.069366105428678
aF-1.3526337505203641
aF102.0528155156712
aF0.21992292206066466
aF-185.64203484282038
aF0.72627915575641611
aF105.27198360583353
aaF54.963099383284977
aI34
a(lp7
ab.ccopy_reg
_reconstructor
p1
(crepresentations
Solution
p2
c__builtin__
object
p3
NtRp4
(lp5
(lp6
F1.6073851928007403
aF0.32619989079358147
aF-19.069366105428678
aF-1.3526337505203641
aF102.0528155156712
aF0.21992292206066466
aF-185.64203484282038
aF0.72627915575641611
aF105.27198360583353
aaF54.963099383284977
aI34
a(lp7
ab.ccopy_reg
_reconstructor
p1
(crepresentations
Solution
p2
c__builtin__
object
p3
NtRp4
(lp5
(lp6
F1.6041661916150223
aF0.48482094075792781
aF-24.066491502619133
aF-7.3676076854598858
aF117.63520277236661
aF9.723718534325867
aF-203.34279457598976
aF-1.3254325138498353
aF111.73961934747931
aaF32.333925122174705
aI36
a(lp7
ab.ccopy_reg
_reconstructor
p1
(crepresentations
Solution
p2
c__builtin__
object
p3
NtRp4
(lp5
(lp6
F0.4197491370800841
aF0.1786569473456876
aF-20.243011161106487
aF-8.3625037669292439
aF129.41379683615645
aF19.52613797767378
aF-233.10410093583837
aF-10.729403878554965
aF126.26001546696347
aaF28.022288721209083
aI37
a(lp7
ab.ccopy_reg
_reconstructor
p1
(crepresentations
Solution
p2
c__builtin__
object
p3
NtRp4
(lp5
(lp6
F0.4197491370800841
aF0.1786569473456876
aF-20.243011161106487
aF-8.3625037669292439
aF129.41379683615645
aF19.52613797767378
aF-233.10410093583837
aF-10.729403878554965
aF126.26001546696347
aaF28.022288721209083
aI37
a(lp7
ab.ccopy_reg
_reconstructor
p1
(crepresentations
Solution
p2
c__builtin__
object
p3
NtRp4
(lp5
(lp6
F0.4197491370800841
aF0.1786569473456876
aF-20.243011161106487
aF-8.3625037669292439
aF129.41379683615645
aF19.52613797767378
aF-233.10410093583837
aF-10.729403878554965
aF126.26001546696347
aaF28.022288721209083
aI37
a(lp7
ab.ccopy_reg
_reconstructor
p1
(crepresentations
Solution
p2
c__builtin__
object
p3
NtRp4
(lp5
(lp6
F1.5976025599791015
aF-0.29206501789506767
aF-38.663898146084279
aF2.4881281365282728
aF197.81846879913138
aF-2.3463308079081564
aF-314.4986060756068
aF-0.078469885226995828
aF154.83672774386318
aaF24.988137281728175
aI40
a(lp7
ab.ccopy_reg
_reconstructor
p1
(crepresentations
Solution
p2
c__builtin__
object
p3
NtRp4
(lp5
(lp6
F1.5976025599791015
aF-0.29206501789506767
aF-38.663898146084279
aF2.4881281365282728
aF197.81846879913138
aF-2.3463308079081564
aF-314.4986060756068
aF-0.078469885226995828
aF154.83672774386318
aaF24.988137281728175
aI40
a(lp7
ab.ccopy_reg
_reconstructor
p1
(crepresentations
Solution
p2
c__builtin__
object
p3
NtRp4
(lp5
(lp6
F1.4110810353443626
aF-0.90956825698383903
aF-29.323372070662181
aF5.9821576175932218
aF152.71489028271742
aF-10.116306183331856
aF-253.27821518782793
aF4.7975924722415879
aF129.39052215756766
aaF21.57472696505145
aI42
a(lp7
ab.ccopy_reg
_reconstructor
p1
(crepresentations
Solution
p2
c__builtin__
object
p3
NtRp4
(lp5
(lp6
F1.4110810353443626
aF-0.90956825698383903
aF-29.323372070662181
aF5.9821576175932218
aF152.71489028271742
aF-10.116306183331856
aF-253.27821518782793
aF4.7975924722415879
aF129.39052215756766
aaF21.57472696505145
aI42
a(lp7
ab.ccopy_reg
_reconstructor
p1
(crepresentations
Solution
p2
c__builtin__
object
p3
NtRp4
(lp5
(lp6
F1.4110810353443626
aF-0.90956825698383903
aF-29.323372070662181
aF5.9821576175932218
aF152.71489028271742
aF-10.116306183331856
aF-253.27821518782793
aF4.7975924722415879
aF129.39052215756766
aaF21.57472696505145
aI42
a(lp7
ab.ccopy_reg
_reconstructor
p1
(crepresentations
Solution
p2
c__builtin__
object
p3
NtRp4
(lp5
(lp6
F1.4110810353443626
aF-0.90956825698383903
aF-29.323372070662181
aF5.9821576175932218
aF152.71489028271742
aF-10.116306183331856
aF-253.27821518782793
aF4.7975924722415879
aF129.39052215756766
aaF21.57472696505145
aI42
a(lp7
ab.ccopy_reg
_reconstructor
p1
(crepresentations
Solution
p2
c__builtin__
object
p3
NtRp4
(lp5
(lp6
F0.97251751425184185
aF0.47860258508901921
aF-29.721839720812923
aF1.2138341744373298
aF156.97419250114501
aF-6.0998096067733885
aF-254.24152396896696
aF4.0192092718933061
aF127.51302548147672
aaF6.9502822583915096
aI46
a(lp7
ab.ccopy_reg
_reconstructor
p1
(crepresentations
Solution
p2
c__builtin__
object
p3
NtRp4
(lp5
(lp6
F0.97251751425184185
aF0.47860258508901921
aF-29.721839720812923
aF1.2138341744373298
aF156.97419250114501
aF-6.0998096067733885
aF-254.24152396896696
aF4.0192092718933061
aF127.51302548147672
aaF6.9502822583915096
aI46
a(lp7
ab.ccopy_reg
_reconstructor
p1
(crepresentations
Solution
p2
c__builtin__
object
p3
NtRp4
(lp5
(lp6
F0.97251751425184185
aF0.47860258508901921
aF-29.721839720812923
aF1.2138341744373298
aF156.97419250114501
aF-6.0998096067733885
aF-254.24152396896696
aF4.0192092718933061
aF127.51302548147672
aaF6.9502822583915096
aI46
a(lp7
ab.ccopy_reg
_reconstructor
p1
(crepresentations
Solution
p2
c__builtin__
object
p3
NtRp4
(lp5
(lp6
F0.97251751425184185
aF0.47860258508901921
aF-29.721839720812923
aF1.2138341744373298
aF156.97419250114501
aF-6.0998096067733885
aF-254.24152396896696
aF4.0192092718933061
aF127.51302548147672
aaF6.9502822583915096
aI46
a(lp7
ab.ccopy_reg
_reconstructor
p1
(crepresentations
Solution
p2
c__builtin__
object
p3
NtRp4
(lp5
(lp6
F0.97251751425184185
aF0.47860258508901921
aF-29.721839720812923
aF1.2138341744373298
aF156.97419250114501
aF-6.0998096067733885
aF-254.24152396896696
aF4.0192092718933061
aF127.51302548147672
aaF6.9502822583915096
aI46
a(lp7
ab.ccopy_reg
_reconstructor
p1
(crepresentations
Solution
p2
c__builtin__
object
p3
NtRp4
(lp5
(lp6
F0.97251751425184185
aF0.47860258508901921
aF-29.721839720812923
aF1.2138341744373298
aF156.97419250114501
aF-6.0998096067733885
aF-254.24152396896696
aF4.0192092718933061
aF127.51302548147672
aaF6.9502822583915096
aI46
a(lp7
ab.ccopy_reg
_reconstructor
p1
(crepresentations
Solution
p2
c__builtin__
object
p3
NtRp4
(lp5
(lp6
F0.97251751425184185
aF0.47860258508901921
aF-29.721839720812923
aF1.2138341744373298
aF156.97419250114501
aF-6.0998096067733885
aF-254.24152396896696
aF4.0192092718933061
aF127.51302548147672
aaF6.9502822583915096
aI46
a(lp7
ab.ccopy_reg
_reconstructor
p1
(crepresentations
Solution
p2
c__builtin__
object
p3
NtRp4
(lp5
(lp6
F0.97251751425184185
aF0.47860258508901921
aF-29.721839720812923
aF1.2138341744373298
aF156.97419250114501
aF-6.0998096067733885
aF-254.24152396896696
aF4.0192092718933061
aF127.51302548147672
aaF6.9502822583915096
aI46
a(lp7
ab.ccopy_reg
_reconstructor
p1
(crepresentations
Solution
p2
c__builtin__
object
p3
NtRp4
(lp5
(lp6
F0.97251751425184185
aF0.47860258508901921
aF-29.721839720812923
aF1.2138341744373298
aF156.97419250114501
aF-6.0998096067733885
aF-254.24152396896696
aF4.0192092718933061
aF127.51302548147672
aaF6.9502822583915096
aI46
a(lp7
ab.ccopy_reg
_reconstructor
p1
(crepresentations
Solution
p2
c__builtin__
object
p3
NtRp4
(lp5
(lp6
F0.97251751425184185
aF0.47860258508901921
aF-29.721839720812923
aF1.2138341744373298
aF156.97419250114501
aF-6.0998096067733885
aF-254.24152396896696
aF4.0192092718933061
aF127.51302548147672
aaF6.9502822583915096
aI46
a(lp7
ab.ccopy_reg
_reconstructor
p1
(crepresentations
Solution
p2
c__builtin__
object
p3
NtRp4
(lp5
(lp6
F0.97251751425184185
aF0.47860258508901921
aF-29.721839720812923
aF1.2138341744373298
aF156.97419250114501
aF-6.0998096067733885
aF-254.24152396896696
aF4.0192092718933061
aF127.51302548147672
aaF6.9502822583915096
aI46
a(lp7
ab.ccopy_reg
_reconstructor
p1
(crepresentations
Solution
p2
c__builtin__
object
p3
NtRp4
(lp5
(lp6
F0.97251751425184185
aF0.47860258508901921
aF-29.721839720812923
aF1.2138341744373298
aF156.97419250114501
aF-6.0998096067733885
aF-254.24152396896696
aF4.0192092718933061
aF127.51302548147672
aaF6.9502822583915096
aI46
a(lp7
ab.ccopy_reg
_reconstructor
p1
(crepresentations
Solution
p2
c__builtin__
object
p3
NtRp4
(lp5
(lp6
F1.3715429582023109
aF-0.3780216410796523
aF-31.331328822295948
aF5.3293675966133218
aF150.88568635970529
aF-10.911540123681203
aF-242.20247653606614
aF5.3526218386326097
aF123.4410382497592
aaF5.7112554403363998
aI58
a(lp7
ab.ccopy_reg
_reconstructor
p1
(crepresentations
Solution
p2
c__builtin__
object
p3
NtRp4
(lp5
(lp6
F1.3715429582023109
aF-0.3780216410796523
aF-31.331328822295948
aF5.3293675966133218
aF150.88568635970529
aF-10.911540123681203
aF-242.20247653606614
aF5.3526218386326097
aF123.4410382497592
aaF5.7112554403363998
aI58
a(lp7
ab.ccopy_reg
_reconstructor
p1
(crepresentations
Solution
p2
c__builtin__
object
p3
NtRp4
(lp5
(lp6
F1.3715429582023109
aF-0.3780216410796523
aF-31.331328822295948
aF5.3293675966133218
aF150.88568635970529
aF-10.911540123681203
aF-242.20247653606614
aF5.3526218386326097
aF123.4410382497592
aaF5.7112554403363998
aI58
a(lp7
ab.ccopy_reg
_reconstructor
p1
(crepresentations
Solution
p2
c__builtin__
object
p3
NtRp4
(lp5
(lp6
F1.3715429582023109
aF-0.3780216410796523
aF-31.331328822295948
aF5.3293675966133218
aF150.88568635970529
aF-10.911540123681203
aF-242.20247653606614
aF5.3526218386326097
aF123.4410382497592
aaF5.7112554403363998
aI58
a(lp7
ab.ccopy_reg
_reconstructor
p1
(crepresentations
Solution
p2
c__builtin__
object
p3
NtRp4
(lp5
(lp6
F1.3715429582023109
aF-0.3780216410796523
aF-31.331328822295948
aF5.3293675966133218
aF150.88568635970529
aF-10.911540123681203
aF-242.20247653606614
aF5.3526218386326097
aF123.4410382497592
aaF5.7112554403363998
aI58
a(lp7
ab.ccopy_reg
_reconstructor
p1
(crepresentations
Solution
p2
c__builtin__
object
p3
NtRp4
(lp5
(lp6
F1.6222381622439714
aF-0.31668829753662581
aF-34.784701376109886
aF1.8887178597880601
aF163.13570461779651
aF-2.0256842061811593
aF-257.34697076759693
aF0.0099936157815525561
aF128.92961561662023
aaF4.2916569746547966
aI63
a(lp7
ab.ccopy_reg
_reconstructor
p1
(crepresentations
Solution
p2
c__builtin__
object
p3
NtRp4
(lp5
(lp6
F1.6222381622439714
aF-0.31668829753662581
aF-34.784701376109886
aF1.8887178597880601
aF163.13570461779651
aF-2.0256842061811593
aF-257.34697076759693
aF0.0099936157815525561
aF128.92961561662023
aaF4.2916569746547966
aI63
a(lp7
ab.ccopy_reg
_reconstructor
p1
(crepresentations
Solution
p2
c__builtin__
object
p3
NtRp4
(lp5
(lp6
F1.6222381622439714
aF-0.31668829753662581
aF-34.784701376109886
aF1.8887178597880601
aF163.13570461779651
aF-2.0256842061811593
aF-257.34697076759693
aF0.0099936157815525561
aF128.92961561662023
aaF4.2916569746547966
aI63
a(lp7
ab.ccopy_reg
_reconstructor
p1
(crepresentations
Solution
p2
c__builtin__
object
p3
NtRp4
(lp5
(lp6
F1.3424703194810634
aF2.8261806803219645
aF-28.095413177436225
aF-12.421471141919131
aF145.94559738703194
aF15.976270677930499
aF-241.69338510667311
aF-6.0484659468403956
aF123.82036694783423
aaF3.569970079852979
aI66
a(lp7
ab.ccopy_reg
_reconstructor
p1
(crepresentations
Solution
p2
c__builtin__
object
p3
NtRp4
(lp5
(lp6
F1.1447071624360219
aF-1.0729420874862701
aF-22.852680143348586
aF5.2086191651604672
aF119.40310582653123
aF-6.2305246706268544
aF-204.12658949492621
aF2.1140881825368583
aF108.54920142258318
aaF3.5476742114122266
aI67
a(lp7
ab.ccopy_reg
_reconstructor
p1
(crepresentations
Solution
p2
c__builtin__
object
p3
NtRp4
(lp5
(lp6
F1.1447071624360219
aF-1.0729420874862701
aF-22.852680143348586
aF5.2086191651604672
aF119.40310582653123
aF-6.2305246706268544
aF-204.12658949492621
aF2.1140881825368583
aF108.54920142258318
aaF3.5476742114122266
aI67
a(lp7
ab.ccopy_reg
_reconstructor
p1
(crepresentations
Solution
p2
c__builtin__
object
p3
NtRp4
(lp5
(lp6
F1.1447071624360219
aF-1.0729420874862701
aF-22.852680143348586
aF5.2086191651604672
aF119.40310582653123
aF-6.2305246706268544
aF-204.12658949492621
aF2.1140881825368583
aF108.54920142258318
aaF3.5476742114122266
aI67
a(lp7
ab.ccopy_reg
_reconstructor
p1
(crepresentations
Solution
p2
c__builtin__
object
p3
NtRp4
(lp5
(lp6
F1.1447071624360219
aF-1.0729420874862701
aF-22.852680143348586
aF5.2086191651604672
aF119.40310582653123
aF-6.2305246706268544
aF-204.12658949492621
aF2.1140881825368583
aF108.54920142258318
aaF3.5476742114122266
aI67
a(lp7
ab.ccopy_reg
_reconstructor
p1
(crepresentations
Solution
p2
c__builtin__
object
p3
NtRp4
(lp5
(lp6
F1.1447071624360219
aF-1.0729420874862701
aF-22.852680143348586
aF5.2086191651604672
aF119.40310582653123
aF-6.2305246706268544
aF-204.12658949492621
aF2.1140881825368583
aF108.54920142258318
aaF3.5476742114122266
aI67
a(lp7
ab.ccopy_reg
_reconstructor
p1
(crepresentations
Solution
p2
c__builtin__
object
p3
NtRp4
(lp5
(lp6
F1.1447071624360219
aF-1.0729420874862701
aF-22.852680143348586
aF5.2086191651604672
aF119.40310582653123
aF-6.2305246706268544
aF-204.12658949492621
aF2.1140881825368583
aF108.54920142258318
aaF3.5476742114122266
aI67
a(lp7
ab.ccopy_reg
_reconstructor
p1
(crepresentations
Solution
p2
c__builtin__
object
p3
NtRp4
(lp5
(lp6
F1.1447071624360219
aF-1.0729420874862701
aF-22.852680143348586
aF5.2086191651604672
aF119.40310582653123
aF-6.2305246706268544
aF-204.12658949492621
aF2.1140881825368583
aF108.54920142258318
aaF3.5476742114122266
aI67
a(lp7
ab.ccopy_reg
_reconstructor
p1
(crepresentations
Solution
p2
c__builtin__
object
p3
NtRp4
(lp5
(lp6
F1.1447071624360219
aF-1.0729420874862701
aF-22.852680143348586
aF5.2086191651604672
aF119.40310582653123
aF-6.2305246706268544
aF-204.12658949492621
aF2.1140881825368583
aF108.54920142258318
aaF3.5476742114122266
aI67
a(lp7
ab.ccopy_reg
_reconstructor
p1
(crepresentations
Solution
p2
c__builtin__
object
p3
NtRp4
(lp5
(lp6
F0.63570223092832223
aF0.018241511793204435
aF-22.043784681404635
aF-0.022144880174523429
aF125.37562542478392
aF-0.75368734311457963
aF-216.1141861682483
aF0.906796560846441
aF114.09762896879478
aaF1.9923996512883793
aI75
a(lp7
ab.ccopy_reg
_reconstructor
p1
(crepresentations
Solution
p2
c__builtin__
object
p3
NtRp4
(lp5
(lp6
F0.63570223092832223
aF0.018241511793204435
aF-22.043784681404635
aF-0.022144880174523429
aF125.37562542478392
aF-0.75368734311457963
aF-216.1141861682483
aF0.906796560846441
aF114.09762896879478
aaF1.9923996512883793
aI75
a(lp7
ab.ccopy_reg
_reconstructor
p1
(crepresentations
Solution
p2
c__builtin__
object
p3
NtRp4
(lp5
(lp6
F0.63570223092832223
aF0.018241511793204435
aF-22.043784681404635
aF-0.022144880174523429
aF125.37562542478392
aF-0.75368734311457963
aF-216.1141861682483
aF0.906796560846441
aF114.09762896879478
aaF1.9923996512883793
aI75
a(lp7
ab.ccopy_reg
_reconstructor
p1
(crepresentations
Solution
p2
c__builtin__
object
p3
NtRp4
(lp5
(lp6
F0.63570223092832223
aF0.018241511793204435
aF-22.043784681404635
aF-0.022144880174523429
aF125.37562542478392
aF-0.75368734311457963
aF-216.1141861682483
aF0.906796560846441
aF114.09762896879478
aaF1.9923996512883793
aI75
a(lp7
ab.ccopy_reg
_reconstructor
p1
(crepresentations
Solution
p2
c__builtin__
object
p3
NtRp4
(lp5
(lp6
F0.63570223092832223
aF0.018241511793204435
aF-22.043784681404635
aF-0.022144880174523429
aF125.37562542478392
aF-0.75368734311457963
aF-216.1141861682483
aF0.906796560846441
aF114.09762896879478
aaF1.9923996512883793
aI75
a(lp7
ab.ccopy_reg
_reconstructor
p1
(crepresentations
Solution
p2
c__builtin__
object
p3
NtRp4
(lp5
(lp6
F0.63570223092832223
aF0.018241511793204435
aF-22.043784681404635
aF-0.022144880174523429
aF125.37562542478392
aF-0.75368734311457963
aF-216.1141861682483
aF0.906796560846441
aF114.09762896879478
aaF1.9923996512883793
aI75
a(lp7
ab.ccopy_reg
_reconstructor
p1
(crepresentations
Solution
p2
c__builtin__
object
p3
NtRp4
(lp5
(lp6
F0.63570223092832223
aF0.018241511793204435
aF-22.043784681404635
aF-0.022144880174523429
aF125.37562542478392
aF-0.75368734311457963
aF-216.1141861682483
aF0.906796560846441
aF114.09762896879478
aaF1.9923996512883793
aI75
a(lp7
ab.ccopy_reg
_reconstructor
p1
(crepresentations
Solution
p2
c__builtin__
object
p3
NtRp4
(lp5
(lp6
F0.87593375608829382
aF-0.55448405088854691
aF-27.01770205824478
aF1.9699487540536709
aF142.66726264215856
aF-2.1258263349434365
aF-236.29151227277112
aF0.64464190687891665
aF121.25012239438298
aaF0.68275733377064318
aI82
a(lp7
ab.ccopy_reg
_reconstructor
p1
(crepresentations
Solution
p2
c__builtin__
object
p3
NtRp4
(lp5
(lp6
F0.87593375608829382
aF-0.55448405088854691
aF-27.01770205824478
aF1.9699487540536709
aF142.66726264215856
aF-2.1258263349434365
aF-236.29151227277112
aF0.64464190687891665
aF121.25012239438298
aaF0.68275733377064318
aI82
a(lp7
ab.ccopy_reg
_reconstructor
p1
(crepresentations
Solution
p2
c__builtin__
object
p3
NtRp4
(lp5
(lp6
F0.87593375608829382
aF-0.55448405088854691
aF-27.01770205824478
aF1.9699487540536709
aF142.66726264215856
aF-2.1258263349434365
aF-236.29151227277112
aF0.64464190687891665
aF121.25012239438298
aaF0.68275733377064318
aI82
a(lp7
ab.ccopy_reg
_reconstructor
p1
(crepresentations
Solution
p2
c__builtin__
object
p3
NtRp4
(lp5
(lp6
F0.87593375608829382
aF-0.55448405088854691
aF-27.01770205824478
aF1.9699487540536709
aF142.66726264215856
aF-2.1258263349434365
aF-236.29151227277112
aF0.64464190687891665
aF121.25012239438298
aaF0.68275733377064318
aI82
a(lp7
ab.ccopy_reg
_reconstructor
p1
(crepresentations
Solution
p2
c__builtin__
object
p3
NtRp4
(lp5
(lp6
F0.87593375608829382
aF-0.55448405088854691
aF-27.01770205824478
aF1.9699487540536709
aF142.66726264215856
aF-2.1258263349434365
aF-236.29151227277112
aF0.64464190687891665
aF121.25012239438298
aaF0.68275733377064318
aI82
a(lp7
ab.ccopy_reg
_reconstructor
p1
(crepresentations
Solution
p2
c__builtin__
object
p3
NtRp4
(lp5
(lp6
F0.87593375608829382
aF-0.55448405088854691
aF-27.01770205824478
aF1.9699487540536709
aF142.66726264215856
aF-2.1258263349434365
aF-236.29151227277112
aF0.64464190687891665
aF121.25012239438298
aaF0.68275733377064318
aI82
a(lp7
ab.ccopy_reg
_reconstructor
p1
(crepresentations
Solution
p2
c__builtin__
object
p3
NtRp4
(lp5
(lp6
F0.87593375608829382
aF-0.55448405088854691
aF-27.01770205824478
aF1.9699487540536709
aF142.66726264215856
aF-2.1258263349434365
aF-236.29151227277112
aF0.64464190687891665
aF121.25012239438298
aaF0.68275733377064318
aI82
a(lp7
ab.ccopy_reg
_reconstructor
p1
(crepresentations
Solution
p2
c__builtin__
object
p3
NtRp4
(lp5
(lp6
F0.87593375608829382
aF-0.55448405088854691
aF-27.01770205824478
aF1.9699487540536709
aF142.66726264215856
aF-2.1258263349434365
aF-236.29151227277112
aF0.64464190687891665
aF121.25012239438298
aaF0.68275733377064318
aI82
a(lp7
ab.ccopy_reg
_reconstructor
p1
(crepresentations
Solution
p2
c__builtin__
object
p3
NtRp4
(lp5
(lp6
F0.87593375608829382
aF-0.55448405088854691
aF-27.01770205824478
aF1.9699487540536709
aF142.66726264215856
aF-2.1258263349434365
aF-236.29151227277112
aF0.64464190687891665
aF121.25012239438298
aaF0.68275733377064318
aI82
a(lp7
ab.ccopy_reg
_reconstructor
p1
(crepresentations
Solution
p2
c__builtin__
object
p3
NtRp4
(lp5
(lp6
F0.87593375608829382
aF-0.55448405088854691
aF-27.01770205824478
aF1.9699487540536709
aF142.66726264215856
aF-2.1258263349434365
aF-236.29151227277112
aF0.64464190687891665
aF121.25012239438298
aaF0.68275733377064318
aI82
a(lp7
ab.ccopy_reg
_reconstructor
p1
(crepresentations
Solution
p2
c__builtin__
object
p3
NtRp4
(lp5
(lp6
F0.87593375608829382
aF-0.55448405088854691
aF-27.01770205824478
aF1.9699487540536709
aF142.66726264215856
aF-2.1258263349434365
aF-236.29151227277112
aF0.64464190687891665
aF121.25012239438298
aaF0.68275733377064318
aI82
a(lp7
ab.ccopy_reg
_reconstructor
p1
(crepresentations
Solution
p2
c__builtin__
object
p3
NtRp4
(lp5
(lp6
F0.87593375608829382
aF-0.55448405088854691
aF-27.01770205824478
aF1.9699487540536709
aF142.66726264215856
aF-2.1258263349434365
aF-236.29151227277112
aF0.64464190687891665
aF121.25012239438298
aaF0.68275733377064318
aI82
a(lp7
ab.ccopy_reg
_reconstructor
p1
(crepresentations
Solution
p2
c__builtin__
object
p3
NtRp4
(lp5
(lp6
F0.87593375608829382
aF-0.55448405088854691
aF-27.01770205824478
aF1.9699487540536709
aF142.66726264215856
aF-2.1258263349434365
aF-236.29151227277112
aF0.64464190687891665
aF121.25012239438298
aaF0.68275733377064318
aI82
a(lp7
ab.ccopy_reg
_reconstructor
p1
(crepresentations
Solution
p2
c__builtin__
object
p3
NtRp4
(lp5
(lp6
F0.87593375608829382
aF-0.55448405088854691
aF-27.01770205824478
aF1.9699487540536709
aF142.66726264215856
aF-2.1258263349434365
aF-236.29151227277112
aF0.64464190687891665
aF121.25012239438298
aaF0.68275733377064318
aI82
a(lp7
ab.ccopy_reg
_reconstructor
p1
(crepresentations
Solution
p2
c__builtin__
object
p3
NtRp4
(lp5
(lp6
F0.87593375608829382
aF-0.55448405088854691
aF-27.01770205824478
aF1.9699487540536709
aF142.66726264215856
aF-2.1258263349434365
aF-236.29151227277112
aF0.64464190687891665
aF121.25012239438298
aaF0.68275733377064318
aI82
a(lp7
ab.ccopy_reg
_reconstructor
p1
(crepresentations
Solution
p2
c__builtin__
object
p3
NtRp4
(lp5
(lp6
F0.87593375608829382
aF-0.55448405088854691
aF-27.01770205824478
aF1.9699487540536709
aF142.66726264215856
aF-2.1258263349434365
aF-236.29151227277112
aF0.64464190687891665
aF121.25012239438298
aaF0.68275733377064318
aI82
a(lp7
ab.ccopy_reg
_reconstructor
p1
(crepresentations
Solution
p2
c__builtin__
object
p3
NtRp4
(lp5
(lp6
F0.87593375608829382
aF-0.55448405088854691
aF-27.01770205824478
aF1.9699487540536709
aF142.66726264215856
aF-2.1258263349434365
aF-236.29151227277112
aF0.64464190687891665
aF121.25012239438298
aaF0.68275733377064318
aI82
a(lp7
ab.ccopy_reg
_reconstructor
p1
(crepresentations
Solution
p2
c__builtin__
object
p3
NtRp4
(lp5
(lp6
F0.87593375608829382
aF-0.55448405088854691
aF-27.01770205824478
aF1.9699487540536709
aF142.66726264215856
aF-2.1258263349434365
aF-236.29151227277112
aF0.64464190687891665
aF121.25012239438298
aaF0.68275733377064318
aI82
a(lp7
ab.ccopy_reg
_reconstructor
p1
(crepresentations
Solution
p2
c__builtin__
object
p3
NtRp4
(lp5
(lp6
F0.87593375608829382
aF-0.55448405088854691
aF-27.01770205824478
aF1.9699487540536709
aF142.66726264215856
aF-2.1258263349434365
aF-236.29151227277112
aF0.64464190687891665
aF121.25012239438298
aaF0.68275733377064318
aI82
a(lp7
ab.ccopy_reg
_reconstructor
p1
(crepresentations
Solution
p2
c__builtin__
object
p3
NtRp4
(lp5
(lp6
F0.87593375608829382
aF-0.55448405088854691
aF-27.01770205824478
aF1.9699487540536709
aF142.66726264215856
aF-2.1258263349434365
aF-236.29151227277112
aF0.64464190687891665
aF121.25012239438298
aaF0.68275733377064318
aI82
a(lp7
ab.ccopy_reg
_reconstructor
p1
(crepresentations
Solution
p2
c__builtin__
object
p3
NtRp4
(lp5
(lp6
F0.87593375608829382
aF-0.55448405088854691
aF-27.01770205824478
aF1.9699487540536709
aF142.66726264215856
aF-2.1258263349434365
aF-236.29151227277112
aF0.64464190687891665
aF121.25012239438298
aaF0.68275733377064318
aI82
a(lp7
ab.ccopy_reg
_reconstructor
p1
(crepresentations
Solution
p2
c__builtin__
object
p3
NtRp4
(lp5
(lp6
F0.87593375608829382
aF-0.55448405088854691
aF-27.01770205824478
aF1.9699487540536709
aF142.66726264215856
aF-2.1258263349434365
aF-236.29151227277112
aF0.64464190687891665
aF121.25012239438298
aaF0.68275733377064318
aI82
a(lp7
ab.ccopy_reg
_reconstructor
p1
(crepresentations
Solution
p2
c__builtin__
object
p3
NtRp4
(lp5
(lp6
F0.87593375608829382
aF-0.55448405088854691
aF-27.01770205824478
aF1.9699487540536709
aF142.66726264215856
aF-2.1258263349434365
aF-236.29151227277112
aF0.64464190687891665
aF121.25012239438298
aaF0.68275733377064318
aI82
a(lp7
ab.ccopy_reg
_reconstructor
p1
(crepresentations
Solution
p2
c__builtin__
object
p3
NtRp4
(lp5
(lp6
F0.87593375608829382
aF-0.55448405088854691
aF-27.01770205824478
aF1.9699487540536709
aF142.66726264215856
aF-2.1258263349434365
aF-236.29151227277112
aF0.64464190687891665
aF121.25012239438298
aaF0.68275733377064318
aI82
a(lp7
ab.ccopy_reg
_reconstructor
p1
(crepresentations
Solution
p2
c__builtin__
object
p3
NtRp4
(lp5
(lp6
F0.87593375608829382
aF-0.55448405088854691
aF-27.01770205824478
aF1.9699487540536709
aF142.66726264215856
aF-2.1258263349434365
aF-236.29151227277112
aF0.64464190687891665
aF121.25012239438298
aaF0.68275733377064318
aI82
a(lp7
ab.ccopy_reg
_reconstructor
p1
(crepresentations
Solution
p2
c__builtin__
object
p3
NtRp4
(lp5
(lp6
F0.87593375608829382
aF-0.55448405088854691
aF-27.01770205824478
aF1.9699487540536709
aF142.66726264215856
aF-2.1258263349434365
aF-236.29151227277112
aF0.64464190687891665
aF121.25012239438298
aaF0.68275733377064318
aI82
a(lp7
ab.ccopy_reg
_reconstructor
p1
(crepresentations
Solution
p2
c__builtin__
object
p3
NtRp4
(lp5
(lp6
F0.84358215670745573
aF0.27918914438810649
aF-29.455939923650039
aF-1.7114223547273457
aF151.79628935443424
aF2.4536175223947856
aF-246.70306080019083
aF-0.94043347551043133
aF124.69036878689528
aaF0.12567148129944042
aI108
a(lp7
ab.ccopy_reg
_reconstructor
p1
(crepresentations
Solution
p2
c__builtin__
object
p3
NtRp4
(lp5
(lp6
F0.84358215670745573
aF0.27918914438810649
aF-29.455939923650039
aF-1.7114223547273457
aF151.79628935443424
aF2.4536175223947856
aF-246.70306080019083
aF-0.94043347551043133
aF124.69036878689528
aaF0.12567148129944042
aI108
a(lp7
ab.ccopy_reg
_reconstructor
p1
(crepresentations
Solution
p2
c__builtin__
object
p3
NtRp4
(lp5
(lp6
F0.84358215670745573
aF0.27918914438810649
aF-29.455939923650039
aF-1.7114223547273457
aF151.79628935443424
aF2.4536175223947856
aF-246.70306080019083
aF-0.94043347551043133
aF124.69036878689528
aaF0.12567148129944042
aI108
a(lp7
ab.ccopy_reg
_reconstructor
p1
(crepresentations
Solution
p2
c__builtin__
object
p3
NtRp4
(lp5
(lp6
F0.84358215670745573
aF0.27918914438810649
aF-29.455939923650039
aF-1.7114223547273457
aF151.79628935443424
aF2.4536175223947856
aF-246.70306080019083
aF-0.94043347551043133
aF124.69036878689528
aaF0.12567148129944042
aI108
a(lp7
ab.ccopy_reg
_reconstructor
p1
(crepresentations
Solution
p2
c__builtin__
object
p3
NtRp4
(lp5
(lp6
F0.84358215670745573
aF0.27918914438810649
aF-29.455939923650039
aF-1.7114223547273457
aF151.79628935443424
aF2.4536175223947856
aF-246.70306080019083
aF-0.94043347551043133
aF124.69036878689528
aaF0.12567148129944042
aI108
a(lp7
ab.ccopy_reg
_reconstructor
p1
(crepresentations
Solution
p2
c__builtin__
object
p3
NtRp4
(lp5
(lp6
F0.84358215670745573
aF0.27918914438810649
aF-29.455939923650039
aF-1.7114223547273457
aF151.79628935443424
aF2.4536175223947856
aF-246.70306080019083
aF-0.94043347551043133
aF124.69036878689528
aaF0.12567148129944042
aI108
a(lp7
ab.ccopy_reg
_reconstructor
p1
(crepresentations
Solution
p2
c__builtin__
object
p3
NtRp4
(lp5
(lp6
F0.84358215670745573
aF0.27918914438810649
aF-29.455939923650039
aF-1.7114223547273457
aF151.79628935443424
aF2.4536175223947856
aF-246.70306080019083
aF-0.94043347551043133
aF124.69036878689528
aaF0.12567148129944042
aI108
a(lp7
ab.ccopy_reg
_reconstructor
p1
(crepresentations
Solution
p2
c__builtin__
object
p3
NtRp4
(lp5
(lp6
F0.84358215670745573
aF0.27918914438810649
aF-29.455939923650039
aF-1.7114223547273457
aF151.79628935443424
aF2.4536175223947856
aF-246.70306080019083
aF-0.94043347551043133
aF124.69036878689528
aaF0.12567148129944042
aI108
a(lp7
ab.ccopy_reg
_reconstructor
p1
(crepresentations
Solution
p2
c__builtin__
object
p3
NtRp4
(lp5
(lp6
F0.84358215670745573
aF0.27918914438810649
aF-29.455939923650039
aF-1.7114223547273457
aF151.79628935443424
aF2.4536175223947856
aF-246.70306080019083
aF-0.94043347551043133
aF124.69036878689528
aaF0.12567148129944042
aI108
a(lp7
ab.ccopy_reg
_reconstructor
p1
(crepresentations
Solution
p2
c__builtin__
object
p3
NtRp4
(lp5
(lp6
F0.84358215670745573
aF0.27918914438810649
aF-29.455939923650039
aF-1.7114223547273457
aF151.79628935443424
aF2.4536175223947856
aF-246.70306080019083
aF-0.94043347551043133
aF124.69036878689528
aaF0.12567148129944042
aI108
a(lp7
ab.ccopy_reg
_reconstructor
p1
(crepresentations
Solution
p2
c__builtin__
object
p3
NtRp4
(lp5
(lp6
F0.84358215670745573
aF0.27918914438810649
aF-29.455939923650039
aF-1.7114223547273457
aF151.79628935443424
aF2.4536175223947856
aF-246.70306080019083
aF-0.94043347551043133
aF124.69036878689528
aaF0.12567148129944042
aI108
a(lp7
ab.ccopy_reg
_reconstructor
p1
(crepresentations
Solution
p2
c__builtin__
object
p3
NtRp4
(lp5
(lp6
F0.84358215670745573
aF0.27918914438810649
aF-29.455939923650039
aF-1.7114223547273457
aF151.79628935443424
aF2.4536175223947856
aF-246.70306080019083
aF-0.94043347551043133
aF124.69036878689528
aaF0.12567148129944042
aI108
a(lp7
ab.ccopy_reg
_reconstructor
p1
(crepresentations
Solution
p2
c__builtin__
object
p3
NtRp4
(lp5
(lp6
F0.84358215670745573
aF0.27918914438810649
aF-29.455939923650039
aF-1.7114223547273457
aF151.79628935443424
aF2.4536175223947856
aF-246.70306080019083
aF-0.94043347551043133
aF124.69036878689528
aaF0.12567148129944042
aI108
a(lp7
ab.ccopy_reg
_reconstructor
p1
(crepresentations
Solution
p2
c__builtin__
object
p3
NtRp4
(lp5
(lp6
F0.84358215670745573
aF0.27918914438810649
aF-29.455939923650039
aF-1.7114223547273457
aF151.79628935443424
aF2.4536175223947856
aF-246.70306080019083
aF-0.94043347551043133
aF124.69036878689528
aaF0.12567148129944042
aI108
a(lp7
ab.ccopy_reg
_reconstructor
p1
(crepresentations
Solution
p2
c__builtin__
object
p3
NtRp4
(lp5
(lp6
F0.84358215670745573
aF0.27918914438810649
aF-29.455939923650039
aF-1.7114223547273457
aF151.79628935443424
aF2.4536175223947856
aF-246.70306080019083
aF-0.94043347551043133
aF124.69036878689528
aaF0.12567148129944042
aI108
a(lp7
ab.ccopy_reg
_reconstructor
p1
(crepresentations
Solution
p2
c__builtin__
object
p3
NtRp4
(lp5
(lp6
F0.84358215670745573
aF0.27918914438810649
aF-29.455939923650039
aF-1.7114223547273457
aF151.79628935443424
aF2.4536175223947856
aF-246.70306080019083
aF-0.94043347551043133
aF124.69036878689528
aaF0.12567148129944042
aI108
a(lp7
ab.ccopy_reg
_reconstructor
p1
(crepresentations
Solution
p2
c__builtin__
object
p3
NtRp4
(lp5
(lp6
F0.84358215670745573
aF0.27918914438810649
aF-29.455939923650039
aF-1.7114223547273457
aF151.79628935443424
aF2.4536175223947856
aF-246.70306080019083
aF-0.94043347551043133
aF124.69036878689528
aaF0.12567148129944042
aI108
a(lp7
ab.ccopy_reg
_reconstructor
p1
(crepresentations
Solution
p2
c__builtin__
object
p3
NtRp4
(lp5
(lp6
F0.99443824650376811
aF0.29341762069586291
aF-31.027128790737137
aF-1.2345677801742949
aF157.17829811840284
aF1.8782337692694591
aF-253.53878457940621
aF-0.92875288366066566
aF127.62475318501522
aaF0.1197688580639884
aI125
a(lp7
ab.ccopy_reg
_reconstructor
p1
(crepresentations
Solution
p2
c__builtin__
object
p3
NtRp4
(lp5
(lp6
F0.99443824650376811
aF0.29341762069586291
aF-31.027128790737137
aF-1.2345677801742949
aF157.17829811840284
aF1.8782337692694591
aF-253.53878457940621
aF-0.92875288366066566
aF127.62475318501522
aaF0.1197688580639884
aI125
a(lp7
ab.ccopy_reg
_reconstructor
p1
(crepresentations
Solution
p2
c__builtin__
object
p3
NtRp4
(lp5
(lp6
F0.99443824650376811
aF0.29341762069586291
aF-31.027128790737137
aF-1.2345677801742949
aF157.17829811840284
aF1.8782337692694591
aF-253.53878457940621
aF-0.92875288366066566
aF127.62475318501522
aaF0.1197688580639884
aI125
a(lp7
ab.ccopy_reg
_reconstructor
p1
(crepresentations
Solution
p2
c__builtin__
object
p3
NtRp4
(lp5
(lp6
F0.99443824650376811
aF0.29341762069586291
aF-31.027128790737137
aF-1.2345677801742949
aF157.17829811840284
aF1.8782337692694591
aF-253.53878457940621
aF-0.92875288366066566
aF127.62475318501522
aaF0.1197688580639884
aI125
a(lp7
ab.ccopy_reg
_reconstructor
p1
(crepresentations
Solution
p2
c__builtin__
object
p3
NtRp4
(lp5
(lp6
F0.99443824650376811
aF0.29341762069586291
aF-31.027128790737137
aF-1.2345677801742949
aF157.17829811840284
aF1.8782337692694591
aF-253.53878457940621
aF-0.92875288366066566
aF127.62475318501522
aaF0.1197688580639884
aI125
a(lp7
ab.ccopy_reg
_reconstructor
p1
(crepresentations
Solution
p2
c__builtin__
object
p3
NtRp4
(lp5
(lp6
F0.99443824650376811
aF0.29341762069586291
aF-31.027128790737137
aF-1.2345677801742949
aF157.17829811840284
aF1.8782337692694591
aF-253.53878457940621
aF-0.92875288366066566
aF127.62475318501522
aaF0.1197688580639884
aI125
a(lp7
ab.ccopy_reg
_reconstructor
p1
(crepresentations
Solution
p2
c__builtin__
object
p3
NtRp4
(lp5
(lp6
F0.99443824650376811
aF0.29341762069586291
aF-31.027128790737137
aF-1.2345677801742949
aF157.17829811840284
aF1.8782337692694591
aF-253.53878457940621
aF-0.92875288366066566
aF127.62475318501522
aaF0.1197688580639884
aI125
a(lp7
ab.ccopy_reg
_reconstructor
p1
(crepresentations
Solution
p2
c__builtin__
object
p3
NtRp4
(lp5
(lp6
F0.99443824650376811
aF0.29341762069586291
aF-31.027128790737137
aF-1.2345677801742949
aF157.17829811840284
aF1.8782337692694591
aF-253.53878457940621
aF-0.92875288366066566
aF127.62475318501522
aaF0.1197688580639884
aI125
a(lp7
ab.ccopy_reg
_reconstructor
p1
(crepresentations
Solution
p2
c__builtin__
object
p3
NtRp4
(lp5
(lp6
F0.99443824650376811
aF0.29341762069586291
aF-31.027128790737137
aF-1.2345677801742949
aF157.17829811840284
aF1.8782337692694591
aF-253.53878457940621
aF-0.92875288366066566
aF127.62475318501522
aaF0.1197688580639884
aI125
a(lp7
ab.ccopy_reg
_reconstructor
p1
(crepresentations
Solution
p2
c__builtin__
object
p3
NtRp4
(lp5
(lp6
F0.99443824650376811
aF0.29341762069586291
aF-31.027128790737137
aF-1.2345677801742949
aF157.17829811840284
aF1.8782337692694591
aF-253.53878457940621
aF-0.92875288366066566
aF127.62475318501522
aaF0.1197688580639884
aI125
a(lp7
ab.ccopy_reg
_reconstructor
p1
(crepresentations
Solution
p2
c__builtin__
object
p3
NtRp4
(lp5
(lp6
F0.99443824650376811
aF0.29341762069586291
aF-31.027128790737137
aF-1.2345677801742949
aF157.17829811840284
aF1.8782337692694591
aF-253.53878457940621
aF-0.92875288366066566
aF127.62475318501522
aaF0.1197688580639884
aI125
a(lp7
ab.ccopy_reg
_reconstructor
p1
(crepresentations
Solution
p2
c__builtin__
object
p3
NtRp4
(lp5
(lp6
F0.99443824650376811
aF0.29341762069586291
aF-31.027128790737137
aF-1.2345677801742949
aF157.17829811840284
aF1.8782337692694591
aF-253.53878457940621
aF-0.92875288366066566
aF127.62475318501522
aaF0.1197688580639884
aI125
a(lp7
ab.ccopy_reg
_reconstructor
p1
(crepresentations
Solution
p2
c__builtin__
object
p3
NtRp4
(lp5
(lp6
F0.99443824650376811
aF0.29341762069586291
aF-31.027128790737137
aF-1.2345677801742949
aF157.17829811840284
aF1.8782337692694591
aF-253.53878457940621
aF-0.92875288366066566
aF127.62475318501522
aaF0.1197688580639884
aI125
a(lp7
ab.ccopy_reg
_reconstructor
p1
(crepresentations
Solution
p2
c__builtin__
object
p3
NtRp4
(lp5
(lp6
F0.99443824650376811
aF0.29341762069586291
aF-31.027128790737137
aF-1.2345677801742949
aF157.17829811840284
aF1.8782337692694591
aF-253.53878457940621
aF-0.92875288366066566
aF127.62475318501522
aaF0.1197688580639884
aI125
a(lp7
ab.ccopy_reg
_reconstructor
p1
(crepresentations
Solution
p2
c__builtin__
object
p3
NtRp4
(lp5
(lp6
F0.99443824650376811
aF0.29341762069586291
aF-31.027128790737137
aF-1.2345677801742949
aF157.17829811840284
aF1.8782337692694591
aF-253.53878457940621
aF-0.92875288366066566
aF127.62475318501522
aaF0.1197688580639884
aI125
a(lp7
ab.ccopy_reg
_reconstructor
p1
(crepresentations
Solution
p2
c__builtin__
object
p3
NtRp4
(lp5
(lp6
F0.99443824650376811
aF0.29341762069586291
aF-31.027128790737137
aF-1.2345677801742949
aF157.17829811840284
aF1.8782337692694591
aF-253.53878457940621
aF-0.92875288366066566
aF127.62475318501522
aaF0.1197688580639884
aI125
a(lp7
ab.ccopy_reg
_reconstructor
p1
(crepresentations
Solution
p2
c__builtin__
object
p3
NtRp4
(lp5
(lp6
F0.99443824650376811
aF0.29341762069586291
aF-31.027128790737137
aF-1.2345677801742949
aF157.17829811840284
aF1.8782337692694591
aF-253.53878457940621
aF-0.92875288366066566
aF127.62475318501522
aaF0.1197688580639884
aI125
a(lp7
ab.ccopy_reg
_reconstructor
p1
(crepresentations
Solution
p2
c__builtin__
object
p3
NtRp4
(lp5
(lp6
F0.99443824650376811
aF0.29341762069586291
aF-31.027128790737137
aF-1.2345677801742949
aF157.17829811840284
aF1.8782337692694591
aF-253.53878457940621
aF-0.92875288366066566
aF127.62475318501522
aaF0.1197688580639884
aI125
a(lp7
ab.ccopy_reg
_reconstructor
p1
(crepresentations
Solution
p2
c__builtin__
object
p3
NtRp4
(lp5
(lp6
F0.99443824650376811
aF0.29341762069586291
aF-31.027128790737137
aF-1.2345677801742949
aF157.17829811840284
aF1.8782337692694591
aF-253.53878457940621
aF-0.92875288366066566
aF127.62475318501522
aaF0.1197688580639884
aI125
a(lp7
ab.ccopy_reg
_reconstructor
p1
(crepresentations
Solution
p2
c__builtin__
object
p3
NtRp4
(lp5
(lp6
F0.99443824650376811
aF0.29341762069586291
aF-31.027128790737137
aF-1.2345677801742949
aF157.17829811840284
aF1.8782337692694591
aF-253.53878457940621
aF-0.92875288366066566
aF127.62475318501522
aaF0.1197688580639884
aI125
a(lp7
ab.ccopy_reg
_reconstructor
p1
(crepresentations
Solution
p2
c__builtin__
object
p3
NtRp4
(lp5
(lp6
F0.99443824650376811
aF0.29341762069586291
aF-31.027128790737137
aF-1.2345677801742949
aF157.17829811840284
aF1.8782337692694591
aF-253.53878457940621
aF-0.92875288366066566
aF127.62475318501522
aaF0.1197688580639884
aI125
a(lp7
ab.ccopy_reg
_reconstructor
p1
(crepresentations
Solution
p2
c__builtin__
object
p3
NtRp4
(lp5
(lp6
F0.99443824650376811
aF0.29341762069586291
aF-31.027128790737137
aF-1.2345677801742949
aF157.17829811840284
aF1.8782337692694591
aF-253.53878457940621
aF-0.92875288366066566
aF127.62475318501522
aaF0.1197688580639884
aI125
a(lp7
ab.ccopy_reg
_reconstructor
p1
(crepresentations
Solution
p2
c__builtin__
object
p3
NtRp4
(lp5
(lp6
F0.99443824650376811
aF0.29341762069586291
aF-31.027128790737137
aF-1.2345677801742949
aF157.17829811840284
aF1.8782337692694591
aF-253.53878457940621
aF-0.92875288366066566
aF127.62475318501522
aaF0.1197688580639884
aI125
a(lp7
ab.ccopy_reg
_reconstructor
p1
(crepresentations
Solution
p2
c__builtin__
object
p3
NtRp4
(lp5
(lp6
F0.99443824650376811
aF0.29341762069586291
aF-31.027128790737137
aF-1.2345677801742949
aF157.17829811840284
aF1.8782337692694591
aF-253.53878457940621
aF-0.92875288366066566
aF127.62475318501522
aaF0.1197688580639884
aI125
a(lp7
ab.ccopy_reg
_reconstructor
p1
(crepresentations
Solution
p2
c__builtin__
object
p3
NtRp4
(lp5
(lp6
F0.93363962693154801
aF0.11743053084556851
aF-31.043787061397811
aF-1.0435508312464103
aF157.49919767568122
aF1.9899188715373535
aF-253.37262697783672
aF-1.0650207762717256
aF127.15673656482851
aaF0.11837461411768513
aI149
a(lp7
ab.ccopy_reg
_reconstructor
p1
(crepresentations
Solution
p2
c__builtin__
object
p3
NtRp4
(lp5
(lp6
F0.93363962693154801
aF0.11743053084556851
aF-31.043787061397811
aF-1.0435508312464103
aF157.49919767568122
aF1.9899188715373535
aF-253.37262697783672
aF-1.0650207762717256
aF127.15673656482851
aaF0.11837461411768513
aI149
a(lp7
ab.ccopy_reg
_reconstructor
p1
(crepresentations
Solution
p2
c__builtin__
object
p3
NtRp4
(lp5
(lp6
F0.93363962693154801
aF0.11743053084556851
aF-31.043787061397811
aF-1.0435508312464103
aF157.49919767568122
aF1.9899188715373535
aF-253.37262697783672
aF-1.0650207762717256
aF127.15673656482851
aaF0.11837461411768513
aI149
a(lp7
ab.ccopy_reg
_reconstructor
p1
(crepresentations
Solution
p2
c__builtin__
object
p3
NtRp4
(lp5
(lp6
F0.93363962693154801
aF0.11743053084556851
aF-31.043787061397811
aF-1.0435508312464103
aF157.49919767568122
aF1.9899188715373535
aF-253.37262697783672
aF-1.0650207762717256
aF127.15673656482851
aaF0.11837461411768513
aI149
a(lp7
ab.ccopy_reg
_reconstructor
p1
(crepresentations
Solution
p2
c__builtin__
object
p3
NtRp4
(lp5
(lp6
F0.93363962693154801
aF0.11743053084556851
aF-31.043787061397811
aF-1.0435508312464103
aF157.49919767568122
aF1.9899188715373535
aF-253.37262697783672
aF-1.0650207762717256
aF127.15673656482851
aaF0.11837461411768513
aI149
a(lp7
ab.ccopy_reg
_reconstructor
p1
(crepresentations
Solution
p2
c__builtin__
object
p3
NtRp4
(lp5
(lp6
F0.93363962693154801
aF0.11743053084556851
aF-31.043787061397811
aF-1.0435508312464103
aF157.49919767568122
aF1.9899188715373535
aF-253.37262697783672
aF-1.0650207762717256
aF127.15673656482851
aaF0.11837461411768513
aI149
a(lp7
ab.ccopy_reg
_reconstructor
p1
(crepresentations
Solution
p2
c__builtin__
object
p3
NtRp4
(lp5
(lp6
F0.93363962693154801
aF0.11743053084556851
aF-31.043787061397811
aF-1.0435508312464103
aF157.49919767568122
aF1.9899188715373535
aF-253.37262697783672
aF-1.0650207762717256
aF127.15673656482851
aaF0.11837461411768513
aI149
a(lp7
ab.ccopy_reg
_reconstructor
p1
(crepresentations
Solution
p2
c__builtin__
object
p3
NtRp4
(lp5
(lp6
F0.93363962693154801
aF0.11743053084556851
aF-31.043787061397811
aF-1.0435508312464103
aF157.49919767568122
aF1.9899188715373535
aF-253.37262697783672
aF-1.0650207762717256
aF127.15673656482851
aaF0.11837461411768513
aI149
a(lp7
ab.ccopy_reg
_reconstructor
p1
(crepresentations
Solution
p2
c__builtin__
object
p3
NtRp4
(lp5
(lp6
F0.93363962693154801
aF0.11743053084556851
aF-31.043787061397811
aF-1.0435508312464103
aF157.49919767568122
aF1.9899188715373535
aF-253.37262697783672
aF-1.0650207762717256
aF127.15673656482851
aaF0.11837461411768513
aI149
a(lp7
ab.ccopy_reg
_reconstructor
p1
(crepresentations
Solution
p2
c__builtin__
object
p3
NtRp4
(lp5
(lp6
F0.93363962693154801
aF0.11743053084556851
aF-31.043787061397811
aF-1.0435508312464103
aF157.49919767568122
aF1.9899188715373535
aF-253.37262697783672
aF-1.0650207762717256
aF127.15673656482851
aaF0.11837461411768513
aI149
a(lp7
ab.ccopy_reg
_reconstructor
p1
(crepresentations
Solution
p2
c__builtin__
object
p3
NtRp4
(lp5
(lp6
F0.99494925768730536
aF-0.028547268892208377
aF-31.535511400813803
aF0.6757872025363274
aF158.72962360904029
aF-1.7728157340714372
aF-255.27945526444668
aF1.0415345597523378
aF128.220293155571
aaF0.048497090628500994
aI159
a(lp7
ab.ccopy_reg
_reconstructor
p1
(crepresentations
Solution
p2
c__builtin__
object
p3
NtRp4
(lp5
(lp6
F0.99494925768730536
aF-0.028547268892208377
aF-31.535511400813803
aF0.6757872025363274
aF158.72962360904029
aF-1.7728157340714372
aF-255.27945526444668
aF1.0415345597523378
aF128.220293155571
aaF0.048497090628500994
aI159
a(lp7
ab.ccopy_reg
_reconstructor
p1
(crepresentations
Solution
p2
c__builtin__
object
p3
NtRp4
(lp5
(lp6
F0.99494925768730536
aF-0.028547268892208377
aF-31.535511400813803
aF0.6757872025363274
aF158.72962360904029
aF-1.7728157340714372
aF-255.27945526444668
aF1.0415345597523378
aF128.220293155571
aaF0.048497090628500994
aI159
a(lp7
ab.ccopy_reg
_reconstructor
p1
(crepresentations
Solution
p2
c__builtin__
object
p3
NtRp4
(lp5
(lp6
F0.99494925768730536
aF-0.028547268892208377
aF-31.535511400813803
aF0.6757872025363274
aF158.72962360904029
aF-1.7728157340714372
aF-255.27945526444668
aF1.0415345597523378
aF128.220293155571
aaF0.048497090628500994
aI159
a(lp7
ab.ccopy_reg
_reconstructor
p1
(crepresentations
Solution
p2
c__builtin__
object
p3
NtRp4
(lp5
(lp6
F0.99494925768730536
aF-0.028547268892208377
aF-31.535511400813803
aF0.6757872025363274
aF158.72962360904029
aF-1.7728157340714372
aF-255.27945526444668
aF1.0415345597523378
aF128.220293155571
aaF0.048497090628500994
aI159
a(lp7
ab.ccopy_reg
_reconstructor
p1
(crepresentations
Solution
p2
c__builtin__
object
p3
NtRp4
(lp5
(lp6
F0.99494925768730536
aF-0.028547268892208377
aF-31.535511400813803
aF0.6757872025363274
aF158.72962360904029
aF-1.7728157340714372
aF-255.27945526444668
aF1.0415345597523378
aF128.220293155571
aaF0.048497090628500994
aI159
a(lp7
ab.ccopy_reg
_reconstructor
p1
(crepresentations
Solution
p2
c__builtin__
object
p3
NtRp4
(lp5
(lp6
F0.99494925768730536
aF-0.028547268892208377
aF-31.535511400813803
aF0.6757872025363274
aF158.72962360904029
aF-1.7728157340714372
aF-255.27945526444668
aF1.0415345597523378
aF128.220293155571
aaF0.048497090628500994
aI159
a(lp7
ab.ccopy_reg
_reconstructor
p1
(crepresentations
Solution
p2
c__builtin__
object
p3
NtRp4
(lp5
(lp6
F0.99494925768730536
aF-0.028547268892208377
aF-31.535511400813803
aF0.6757872025363274
aF158.72962360904029
aF-1.7728157340714372
aF-255.27945526444668
aF1.0415345597523378
aF128.220293155571
aaF0.048497090628500994
aI159
a(lp7
ab.ccopy_reg
_reconstructor
p1
(crepresentations
Solution
p2
c__builtin__
object
p3
NtRp4
(lp5
(lp6
F0.99494925768730536
aF-0.028547268892208377
aF-31.535511400813803
aF0.6757872025363274
aF158.72962360904029
aF-1.7728157340714372
aF-255.27945526444668
aF1.0415345597523378
aF128.220293155571
aaF0.048497090628500994
aI159
a(lp7
ab.ccopy_reg
_reconstructor
p1
(crepresentations
Solution
p2
c__builtin__
object
p3
NtRp4
(lp5
(lp6
F0.99494925768730536
aF-0.028547268892208377
aF-31.535511400813803
aF0.6757872025363274
aF158.72962360904029
aF-1.7728157340714372
aF-255.27945526444668
aF1.0415345597523378
aF128.220293155571
aaF0.048497090628500994
aI159
a(lp7
ab.ccopy_reg
_reconstructor
p1
(crepresentations
Solution
p2
c__builtin__
object
p3
NtRp4
(lp5
(lp6
F0.99494925768730536
aF-0.028547268892208377
aF-31.535511400813803
aF0.6757872025363274
aF158.72962360904029
aF-1.7728157340714372
aF-255.27945526444668
aF1.0415345597523378
aF128.220293155571
aaF0.048497090628500994
aI159
a(lp7
ab.ccopy_reg
_reconstructor
p1
(crepresentations
Solution
p2
c__builtin__
object
p3
NtRp4
(lp5
(lp6
F0.99494925768730536
aF-0.028547268892208377
aF-31.535511400813803
aF0.6757872025363274
aF158.72962360904029
aF-1.7728157340714372
aF-255.27945526444668
aF1.0415345597523378
aF128.220293155571
aaF0.048497090628500994
aI159
a(lp7
ab.ccopy_reg
_reconstructor
p1
(crepresentations
Solution
p2
c__builtin__
object
p3
NtRp4
(lp5
(lp6
F0.99494925768730536
aF-0.028547268892208377
aF-31.535511400813803
aF0.6757872025363274
aF158.72962360904029
aF-1.7728157340714372
aF-255.27945526444668
aF1.0415345597523378
aF128.220293155571
aaF0.048497090628500994
aI159
a(lp7
ab.ccopy_reg
_reconstructor
p1
(crepresentations
Solution
p2
c__builtin__
object
p3
NtRp4
(lp5
(lp6
F0.99494925768730536
aF-0.028547268892208377
aF-31.535511400813803
aF0.6757872025363274
aF158.72962360904029
aF-1.7728157340714372
aF-255.27945526444668
aF1.0415345597523378
aF128.220293155571
aaF0.048497090628500994
aI159
a(lp7
ab.ccopy_reg
_reconstructor
p1
(crepresentations
Solution
p2
c__builtin__
object
p3
NtRp4
(lp5
(lp6
F0.99494925768730536
aF-0.028547268892208377
aF-31.535511400813803
aF0.6757872025363274
aF158.72962360904029
aF-1.7728157340714372
aF-255.27945526444668
aF1.0415345597523378
aF128.220293155571
aaF0.048497090628500994
aI159
a(lp7
ab.ccopy_reg
_reconstructor
p1
(crepresentations
Solution
p2
c__builtin__
object
p3
NtRp4
(lp5
(lp6
F0.99494925768730536
aF-0.028547268892208377
aF-31.535511400813803
aF0.6757872025363274
aF158.72962360904029
aF-1.7728157340714372
aF-255.27945526444668
aF1.0415345597523378
aF128.220293155571
aaF0.048497090628500994
aI159
a(lp7
ab.ccopy_reg
_reconstructor
p1
(crepresentations
Solution
p2
c__builtin__
object
p3
NtRp4
(lp5
(lp6
F0.99494925768730536
aF-0.028547268892208377
aF-31.535511400813803
aF0.6757872025363274
aF158.72962360904029
aF-1.7728157340714372
aF-255.27945526444668
aF1.0415345597523378
aF128.220293155571
aaF0.048497090628500994
aI159
a(lp7
ab.ccopy_reg
_reconstructor
p1
(crepresentations
Solution
p2
c__builtin__
object
p3
NtRp4
(lp5
(lp6
F0.99494925768730536
aF-0.028547268892208377
aF-31.535511400813803
aF0.6757872025363274
aF158.72962360904029
aF-1.7728157340714372
aF-255.27945526444668
aF1.0415345597523378
aF128.220293155571
aaF0.048497090628500994
aI159
a(lp7
ab.ccopy_reg
_reconstructor
p1
(crepresentations
Solution
p2
c__builtin__
object
p3
NtRp4
(lp5
(lp6
F0.99494925768730536
aF-0.028547268892208377
aF-31.535511400813803
aF0.6757872025363274
aF158.72962360904029
aF-1.7728157340714372
aF-255.27945526444668
aF1.0415345597523378
aF128.220293155571
aaF0.048497090628500994
aI159
a(lp7
ab.ccopy_reg
_reconstructor
p1
(crepresentations
Solution
p2
c__builtin__
object
p3
NtRp4
(lp5
(lp6
F0.88295894084713178
aF-0.20855198779604006
aF-30.569727372891851
aF1.8362611165490759
aF155.95168657571534
aF-3.5483680849298791
aF-252.20713089120045
aF1.8702530083867943
aF127.06787040771312
aaF0.044577740014980202
aI178
a(lp7
ab.ccopy_reg
_reconstructor
p1
(crepresentations
Solution
p2
c__builtin__
object
p3
NtRp4
(lp5
(lp6
F0.88295894084713178
aF-0.20855198779604006
aF-30.569727372891851
aF1.8362611165490759
aF155.95168657571534
aF-3.5483680849298791
aF-252.20713089120045
aF1.8702530083867943
aF127.06787040771312
aaF0.044577740014980202
aI178
a(lp7
ab.ccopy_reg
_reconstructor
p1
(crepresentations
Solution
p2
c__builtin__
object
p3
NtRp4
(lp5
(lp6
F0.88295894084713178
aF-0.20855198779604006
aF-30.569727372891851
aF1.8362611165490759
aF155.95168657571534
aF-3.5483680849298791
aF-252.20713089120045
aF1.8702530083867943
aF127.06787040771312
aaF0.044577740014980202
aI178
a(lp7
ab.ccopy_reg
_reconstructor
p1
(crepresentations
Solution
p2
c__builtin__
object
p3
NtRp4
(lp5
(lp6
F0.88295894084713178
aF-0.20855198779604006
aF-30.569727372891851
aF1.8362611165490759
aF155.95168657571534
aF-3.5483680849298791
aF-252.20713089120045
aF1.8702530083867943
aF127.06787040771312
aaF0.044577740014980202
aI178
a(lp7
ab.ccopy_reg
_reconstructor
p1
(crepresentations
Solution
p2
c__builtin__
object
p3
NtRp4
(lp5
(lp6
F0.88295894084713178
aF-0.20855198779604006
aF-30.569727372891851
aF1.8362611165490759
aF155.95168657571534
aF-3.5483680849298791
aF-252.20713089120045
aF1.8702530083867943
aF127.06787040771312
aaF0.044577740014980202
aI178
a(lp7
ab.ccopy_reg
_reconstructor
p1
(crepresentations
Solution
p2
c__builtin__
object
p3
NtRp4
(lp5
(lp6
F0.98856694603720963
aF-0.089117266783636753
aF-31.642499974247059
aF0.33429267624916559
aF159.20227650137227
aF-0.36872247328751362
aF-255.78004689328071
aF0.16702126301038911
aF128.3427724880757
aaF0.028638285523713614
aI183
a(lp7
ab.ccopy_reg
_reconstructor
p1
(crepresentations
Solution
p2
c__builtin__
object
p3
NtRp4
(lp5
(lp6
F0.98856694603720963
aF-0.089117266783636753
aF-31.642499974247059
aF0.33429267624916559
aF159.20227650137227
aF-0.36872247328751362
aF-255.78004689328071
aF0.16702126301038911
aF128.3427724880757
aaF0.028638285523713614
aI183
a(lp7
ab.ccopy_reg
_reconstructor
p1
(crepresentations
Solution
p2
c__builtin__
object
p3
NtRp4
(lp5
(lp6
F0.98856694603720963
aF-0.089117266783636753
aF-31.642499974247059
aF0.33429267624916559
aF159.20227650137227
aF-0.36872247328751362
aF-255.78004689328071
aF0.16702126301038911
aF128.3427724880757
aaF0.028638285523713614
aI183
a(lp7
ab.ccopy_reg
_reconstructor
p1
(crepresentations
Solution
p2
c__builtin__
object
p3
NtRp4
(lp5
(lp6
F0.98856694603720963
aF-0.089117266783636753
aF-31.642499974247059
aF0.33429267624916559
aF159.20227650137227
aF-0.36872247328751362
aF-255.78004689328071
aF0.16702126301038911
aF128.3427724880757
aaF0.028638285523713614
aI183
a(lp7
ab.ccopy_reg
_reconstructor
p1
(crepresentations
Solution
p2
c__builtin__
object
p3
NtRp4
(lp5
(lp6
F0.98856694603720963
aF-0.089117266783636753
aF-31.642499974247059
aF0.33429267624916559
aF159.20227650137227
aF-0.36872247328751362
aF-255.78004689328071
aF0.16702126301038911
aF128.3427724880757
aaF0.028638285523713614
aI183
a(lp7
ab.ccopy_reg
_reconstructor
p1
(crepresentations
Solution
p2
c__builtin__
object
p3
NtRp4
(lp5
(lp6
F0.98856694603720963
aF-0.089117266783636753
aF-31.642499974247059
aF0.33429267624916559
aF159.20227650137227
aF-0.36872247328751362
aF-255.78004689328071
aF0.16702126301038911
aF128.3427724880757
aaF0.028638285523713614
aI183
a(lp7
ab.ccopy_reg
_reconstructor
p1
(crepresentations
Solution
p2
c__builtin__
object
p3
NtRp4
(lp5
(lp6
F0.98856694603720963
aF-0.089117266783636753
aF-31.642499974247059
aF0.33429267624916559
aF159.20227650137227
aF-0.36872247328751362
aF-255.78004689328071
aF0.16702126301038911
aF128.3427724880757
aaF0.028638285523713614
aI183
a(lp7
ab.ccopy_reg
_reconstructor
p1
(crepresentations
Solution
p2
c__builtin__
object
p3
NtRp4
(lp5
(lp6
F0.98856694603720963
aF-0.089117266783636753
aF-31.642499974247059
aF0.33429267624916559
aF159.20227650137227
aF-0.36872247328751362
aF-255.78004689328071
aF0.16702126301038911
aF128.3427724880757
aaF0.028638285523713614
aI183
a(lp7
ab.ccopy_reg
_reconstructor
p1
(crepresentations
Solution
p2
c__builtin__
object
p3
NtRp4
(lp5
(lp6
F0.98856694603720963
aF-0.089117266783636753
aF-31.642499974247059
aF0.33429267624916559
aF159.20227650137227
aF-0.36872247328751362
aF-255.78004689328071
aF0.16702126301038911
aF128.3427724880757
aaF0.028638285523713614
aI183
a(lp7
ab.ccopy_reg
_reconstructor
p1
(crepresentations
Solution
p2
c__builtin__
object
p3
NtRp4
(lp5
(lp6
F0.98856694603720963
aF-0.089117266783636753
aF-31.642499974247059
aF0.33429267624916559
aF159.20227650137227
aF-0.36872247328751362
aF-255.78004689328071
aF0.16702126301038911
aF128.3427724880757
aaF0.028638285523713614
aI183
a(lp7
ab.ccopy_reg
_reconstructor
p1
(crepresentations
Solution
p2
c__builtin__
object
p3
NtRp4
(lp5
(lp6
F0.98856694603720963
aF-0.089117266783636753
aF-31.642499974247059
aF0.33429267624916559
aF159.20227650137227
aF-0.36872247328751362
aF-255.78004689328071
aF0.16702126301038911
aF128.3427724880757
aaF0.028638285523713614
aI183
a(lp7
ab.ccopy_reg
_reconstructor
p1
(crepresentations
Solution
p2
c__builtin__
object
p3
NtRp4
(lp5
(lp6
F0.98856694603720963
aF-0.089117266783636753
aF-31.642499974247059
aF0.33429267624916559
aF159.20227650137227
aF-0.36872247328751362
aF-255.78004689328071
aF0.16702126301038911
aF128.3427724880757
aaF0.028638285523713614
aI183
a(lp7
ab.ccopy_reg
_reconstructor
p1
(crepresentations
Solution
p2
c__builtin__
object
p3
NtRp4
(lp5
(lp6
F0.98856694603720963
aF-0.089117266783636753
aF-31.642499974247059
aF0.33429267624916559
aF159.20227650137227
aF-0.36872247328751362
aF-255.78004689328071
aF0.16702126301038911
aF128.3427724880757
aaF0.028638285523713614
aI183
a(lp7
ab.ccopy_reg
_reconstructor
p1
(crepresentations
Solution
p2
c__builtin__
object
p3
NtRp4
(lp5
(lp6
F0.98856694603720963
aF-0.089117266783636753
aF-31.642499974247059
aF0.33429267624916559
aF159.20227650137227
aF-0.36872247328751362
aF-255.78004689328071
aF0.16702126301038911
aF128.3427724880757
aaF0.028638285523713614
aI183
a(lp7
ab.ccopy_reg
_reconstructor
p1
(crepresentations
Solution
p2
c__builtin__
object
p3
NtRp4
(lp5
(lp6
F0.98856694603720963
aF-0.089117266783636753
aF-31.642499974247059
aF0.33429267624916559
aF159.20227650137227
aF-0.36872247328751362
aF-255.78004689328071
aF0.16702126301038911
aF128.3427724880757
aaF0.028638285523713614
aI183
a(lp7
ab.ccopy_reg
_reconstructor
p1
(crepresentations
Solution
p2
c__builtin__
object
p3
NtRp4
(lp5
(lp6
F0.98856694603720963
aF-0.089117266783636753
aF-31.642499974247059
aF0.33429267624916559
aF159.20227650137227
aF-0.36872247328751362
aF-255.78004689328071
aF0.16702126301038911
aF128.3427724880757
aaF0.028638285523713614
aI183
a(lp7
ab.ccopy_reg
_reconstructor
p1
(crepresentations
Solution
p2
c__builtin__
object
p3
NtRp4
(lp5
(lp6
F0.98856694603720963
aF-0.089117266783636753
aF-31.642499974247059
aF0.33429267624916559
aF159.20227650137227
aF-0.36872247328751362
aF-255.78004689328071
aF0.16702126301038911
aF128.3427724880757
aaF0.028638285523713614
aI183
a(lp7
ab.ccopy_reg
_reconstructor
p1
(crepresentations
Solution
p2
c__builtin__
object
p3
NtRp4
(lp5
(lp6
F1.0311365749775951
aF0.14793649530212832
aF-31.746926377847519
aF-0.33963514913493376
aF159.05882159267128
aF0.26152322441221898
aF-255.1190429135597
aF-0.088874726052893038
aF127.87192166292083
aaF0.024588126754987893
aI200
a(lp7
ab.ccopy_reg
_reconstructor
p1
(crepresentations
Solution
p2
c__builtin__
object
p3
NtRp4
(lp5
(lp6
F1.0311365749775951
aF0.14793649530212832
aF-31.746926377847519
aF-0.33963514913493376
aF159.05882159267128
aF0.26152322441221898
aF-255.1190429135597
aF-0.088874726052893038
aF127.87192166292083
aaF0.024588126754987893
aI200
a(lp7
ab.ccopy_reg
_reconstructor
p1
(crepresentations
Solution
p2
c__builtin__
object
p3
NtRp4
(lp5
(lp6
F1.0311365749775951
aF0.14793649530212832
aF-31.746926377847519
aF-0.33963514913493376
aF159.05882159267128
aF0.26152322441221898
aF-255.1190429135597
aF-0.088874726052893038
aF127.87192166292083
aaF0.024588126754987893
aI200
a(lp7
ab.ccopy_reg
_reconstructor
p1
(crepresentations
Solution
p2
c__builtin__
object
p3
NtRp4
(lp5
(lp6
F1.0311365749775951
aF0.14793649530212832
aF-31.746926377847519
aF-0.33963514913493376
aF159.05882159267128
aF0.26152322441221898
aF-255.1190429135597
aF-0.088874726052893038
aF127.87192166292083
aaF0.024588126754987893
aI200
a(lp7
ab.ccopy_reg
_reconstructor
p1
(crepresentations
Solution
p2
c__builtin__
object
p3
NtRp4
(lp5
(lp6
F1.0311365749775951
aF0.14793649530212832
aF-31.746926377847519
aF-0.33963514913493376
aF159.05882159267128
aF0.26152322441221898
aF-255.1190429135597
aF-0.088874726052893038
aF127.87192166292083
aaF0.024588126754987893
aI200
a(lp7
ab.ccopy_reg
_reconstructor
p1
(crepresentations
Solution
p2
c__builtin__
object
p3
NtRp4
(lp5
(lp6
F0.94877495118326349
aF0.19238005605586811
aF-31.161920691515608
aF-0.77691877349326099
aF157.87526800189903
aF1.1171132024766413
aF-254.20434696854122
aF-0.50386199580317803
aF127.63218411342433
aaF0.022001309208416996
aI205
a(lp7
ab.ccopy_reg
_reconstructor
p1
(crepresentations
Solution
p2
c__builtin__
object
p3
NtRp4
(lp5
(lp6
F0.94877495118326349
aF0.19238005605586811
aF-31.161920691515608
aF-0.77691877349326099
aF157.87526800189903
aF1.1171132024766413
aF-254.20434696854122
aF-0.50386199580317803
aF127.63218411342433
aaF0.022001309208416996
aI205
a(lp7
ab.ccopy_reg
_reconstructor
p1
(crepresentations
Solution
p2
c__builtin__
object
p3
NtRp4
(lp5
(lp6
F0.94877495118326349
aF0.19238005605586811
aF-31.161920691515608
aF-0.77691877349326099
aF157.87526800189903
aF1.1171132024766413
aF-254.20434696854122
aF-0.50386199580317803
aF127.63218411342433
aaF0.022001309208416996
aI205
a(lp7
ab.ccopy_reg
_reconstructor
p1
(crepresentations
Solution
p2
c__builtin__
object
p3
NtRp4
(lp5
(lp6
F0.94877495118326349
aF0.19238005605586811
aF-31.161920691515608
aF-0.77691877349326099
aF157.87526800189903
aF1.1171132024766413
aF-254.20434696854122
aF-0.50386199580317803
aF127.63218411342433
aaF0.022001309208416996
aI205
a(lp7
ab.ccopy_reg
_reconstructor
p1
(crepresentations
Solution
p2
c__builtin__
object
p3
NtRp4
(lp5
(lp6
F0.94877495118326349
aF0.19238005605586811
aF-31.161920691515608
aF-0.77691877349326099
aF157.87526800189903
aF1.1171132024766413
aF-254.20434696854122
aF-0.50386199580317803
aF127.63218411342433
aaF0.022001309208416996
aI205
a(lp7
ab.ccopy_reg
_reconstructor
p1
(crepresentations
Solution
p2
c__builtin__
object
p3
NtRp4
(lp5
(lp6
F0.94877495118326349
aF0.19238005605586811
aF-31.161920691515608
aF-0.77691877349326099
aF157.87526800189903
aF1.1171132024766413
aF-254.20434696854122
aF-0.50386199580317803
aF127.63218411342433
aaF0.022001309208416996
aI205
a(lp7
ab.ccopy_reg
_reconstructor
p1
(crepresentations
Solution
p2
c__builtin__
object
p3
NtRp4
(lp5
(lp6
F0.94877495118326349
aF0.19238005605586811
aF-31.161920691515608
aF-0.77691877349326099
aF157.87526800189903
aF1.1171132024766413
aF-254.20434696854122
aF-0.50386199580317803
aF127.63218411342433
aaF0.022001309208416996
aI205
a(lp7
ab.ccopy_reg
_reconstructor
p1
(crepresentations
Solution
p2
c__builtin__
object
p3
NtRp4
(lp5
(lp6
F1.0147329141222237
aF0.062279983285621954
aF-31.699880716558223
aF-0.017824676917888471
aF159.59770976643813
aF-0.3044561708968303
aF-256.20377207764358
aF0.24744683203237172
aF128.37585872092919
aaF0.020970570621197809
aI212
a(lp7
ab.ccopy_reg
_reconstructor
p1
(crepresentations
Solution
p2
c__builtin__
object
p3
NtRp4
(lp5
(lp6
F1.0147329141222237
aF0.062279983285621954
aF-31.699880716558223
aF-0.017824676917888471
aF159.59770976643813
aF-0.3044561708968303
aF-256.20377207764358
aF0.24744683203237172
aF128.37585872092919
aaF0.020970570621197809
aI212
a(lp7
ab.ccopy_reg
_reconstructor
p1
(crepresentations
Solution
p2
c__builtin__
object
p3
NtRp4
(lp5
(lp6
F1.0147329141222237
aF0.062279983285621954
aF-31.699880716558223
aF-0.017824676917888471
aF159.59770976643813
aF-0.3044561708968303
aF-256.20377207764358
aF0.24744683203237172
aF128.37585872092919
aaF0.020970570621197809
aI212
a(lp7
ab.ccopy_reg
_reconstructor
p1
(crepresentations
Solution
p2
c__builtin__
object
p3
NtRp4
(lp5
(lp6
F0.92458661876597525
aF-0.10027246432593098
aF-30.187312428534316
aF0.86994928783424241
aF154.39356113038178
aF-1.3096309559866988
aF-250.11390243202743
aF0.52538164445108437
aF126.0579615437065
aaF0.015940000329453963
aI215
a(lp7
ab.ccopy_reg
_reconstructor
p1
(crepresentations
Solution
p2
c__builtin__
object
p3
NtRp4
(lp5
(lp6
F1.0753823282294108
aF-0.11788422614062957
aF-32.051449949490099
aF0.83676045282816547
aF159.91828494499319
aF-1.3177927662087927
aF-256.08300559965335
aF0.57986718036505569
aF128.18346848856882
aaF0.011581185279469218
aI216
a(lp7
ab.ccopy_reg
_reconstructor
p1
(crepresentations
Solution
p2
c__builtin__
object
p3
NtRp4
(lp5
(lp6
F1.0753823282294108
aF-0.11788422614062957
aF-32.051449949490099
aF0.83676045282816547
aF159.91828494499319
aF-1.3177927662087927
aF-256.08300559965335
aF0.57986718036505569
aF128.18346848856882
aaF0.011581185279469218
aI216
a(lp7
ab.ccopy_reg
_reconstructor
p1
(crepresentations
Solution
p2
c__builtin__
object
p3
NtRp4
(lp5
(lp6
F1.0753823282294108
aF-0.11788422614062957
aF-32.051449949490099
aF0.83676045282816547
aF159.91828494499319
aF-1.3177927662087927
aF-256.08300559965335
aF0.57986718036505569
aF128.18346848856882
aaF0.011581185279469218
aI216
a(lp7
ab.ccopy_reg
_reconstructor
p1
(crepresentations
Solution
p2
c__builtin__
object
p3
NtRp4
(lp5
(lp6
F1.0753823282294108
aF-0.11788422614062957
aF-32.051449949490099
aF0.83676045282816547
aF159.91828494499319
aF-1.3177927662087927
aF-256.08300559965335
aF0.57986718036505569
aF128.18346848856882
aaF0.011581185279469218
aI216
a(lp7
ab.ccopy_reg
_reconstructor
p1
(crepresentations
Solution
p2
c__builtin__
object
p3
NtRp4
(lp5
(lp6
F1.0753823282294108
aF-0.11788422614062957
aF-32.051449949490099
aF0.83676045282816547
aF159.91828494499319
aF-1.3177927662087927
aF-256.08300559965335
aF0.57986718036505569
aF128.18346848856882
aaF0.011581185279469218
aI216
a(lp7
ab.ccopy_reg
_reconstructor
p1
(crepresentations
Solution
p2
c__builtin__
object
p3
NtRp4
(lp5
(lp6
F1.0753823282294108
aF-0.11788422614062957
aF-32.051449949490099
aF0.83676045282816547
aF159.91828494499319
aF-1.3177927662087927
aF-256.08300559965335
aF0.57986718036505569
aF128.18346848856882
aaF0.011581185279469218
aI216
a(lp7
ab.ccopy_reg
_reconstructor
p1
(crepresentations
Solution
p2
c__builtin__
object
p3
NtRp4
(lp5
(lp6
F1.0231736213226919
aF0.19284846970404299
aF-31.172764562075301
aF-0.51931283054973465
aF156.81966738230847
aF0.67219945299191908
aF-252.50443596060398
aF-0.342917161813585
aF126.88134335555439
aaF0.0099187604503199918
aI222
a(lp7
ab.ccopy_reg
_reconstructor
p1
(crepresentations
Solution
p2
c__builtin__
object
p3
NtRp4
(lp5
(lp6
F1.0231736213226919
aF0.19284846970404299
aF-31.172764562075301
aF-0.51931283054973465
aF156.81966738230847
aF0.67219945299191908
aF-252.50443596060398
aF-0.342917161813585
aF126.88134335555439
aaF0.0099187604503199918
aI222
a(lp7
ab.ccopy_reg
_reconstructor
p1
(crepresentations
Solution
p2
c__builtin__
object
p3
NtRp4
(lp5
(lp6
F1.0231736213226919
aF0.19284846970404299
aF-31.172764562075301
aF-0.51931283054973465
aF156.81966738230847
aF0.67219945299191908
aF-252.50443596060398
aF-0.342917161813585
aF126.88134335555439
aaF0.0099187604503199918
aI222
a(lp7
ab.ccopy_reg
_reconstructor
p1
(crepresentations
Solution
p2
c__builtin__
object
p3
NtRp4
(lp5
(lp6
F1.0231736213226919
aF0.19284846970404299
aF-31.172764562075301
aF-0.51931283054973465
aF156.81966738230847
aF0.67219945299191908
aF-252.50443596060398
aF-0.342917161813585
aF126.88134335555439
aaF0.0099187604503199918
aI222
a(lp7
ab.ccopy_reg
_reconstructor
p1
(crepresentations
Solution
p2
c__builtin__
object
p3
NtRp4
(lp5
(lp6
F1.0231736213226919
aF0.19284846970404299
aF-31.172764562075301
aF-0.51931283054973465
aF156.81966738230847
aF0.67219945299191908
aF-252.50443596060398
aF-0.342917161813585
aF126.88134335555439
aaF0.0099187604503199918
aI222
a(lp7
ab.ccopy_reg
_reconstructor
p1
(crepresentations
Solution
p2
c__builtin__
object
p3
NtRp4
(lp5
(lp6
F1.0231736213226919
aF0.19284846970404299
aF-31.172764562075301
aF-0.51931283054973465
aF156.81966738230847
aF0.67219945299191908
aF-252.50443596060398
aF-0.342917161813585
aF126.88134335555439
aaF0.0099187604503199918
aI222
a(lp7
ab.ccopy_reg
_reconstructor
p1
(crepresentations
Solution
p2
c__builtin__
object
p3
NtRp4
(lp5
(lp6
F0.9914035959609816
aF0.22827456193168266
aF-31.396692462467694
aF-1.0137158736517224
aF158.31310255791672
aF1.4594336092332187
aF-254.51873298292176
aF-0.65293175668233261
aF127.63557336504329
aaF0.0044269032432412815
aI228
a(lp7
ab.ccopy_reg
_reconstructor
p1
(crepresentations
Solution
p2
c__builtin__
object
p3
NtRp4
(lp5
(lp6
F0.9914035959609816
aF0.22827456193168266
aF-31.396692462467694
aF-1.0137158736517224
aF158.31310255791672
aF1.4594336092332187
aF-254.51873298292176
aF-0.65293175668233261
aF127.63557336504329
aaF0.0044269032432412815
aI228
a(lp7
ab.ccopy_reg
_reconstructor
p1
(crepresentations
Solution
p2
c__builtin__
object
p3
NtRp4
(lp5
(lp6
F0.9914035959609816
aF0.22827456193168266
aF-31.396692462467694
aF-1.0137158736517224
aF158.31310255791672
aF1.4594336092332187
aF-254.51873298292176
aF-0.65293175668233261
aF127.63557336504329
aaF0.0044269032432412815
aI228
a(lp7
ab.ccopy_reg
_reconstructor
p1
(crepresentations
Solution
p2
c__builtin__
object
p3
NtRp4
(lp5
(lp6
F0.9914035959609816
aF0.22827456193168266
aF-31.396692462467694
aF-1.0137158736517224
aF158.31310255791672
aF1.4594336092332187
aF-254.51873298292176
aF-0.65293175668233261
aF127.63557336504329
aaF0.0044269032432412815
aI228
a(lp7
ab.ccopy_reg
_reconstructor
p1
(crepresentations
Solution
p2
c__builtin__
object
p3
NtRp4
(lp5
(lp6
F0.9914035959609816
aF0.22827456193168266
aF-31.396692462467694
aF-1.0137158736517224
aF158.31310255791672
aF1.4594336092332187
aF-254.51873298292176
aF-0.65293175668233261
aF127.63557336504329
aaF0.0044269032432412815
aI228
a(lp7
ab.ccopy_reg
_reconstructor
p1
(crepresentations
Solution
p2
c__builtin__
object
p3
NtRp4
(lp5
(lp6
F0.9914035959609816
aF0.22827456193168266
aF-31.396692462467694
aF-1.0137158736517224
aF158.31310255791672
aF1.4594336092332187
aF-254.51873298292176
aF-0.65293175668233261
aF127.63557336504329
aaF0.0044269032432412815
aI228
a(lp7
ab.ccopy_reg
_reconstructor
p1
(crepresentations
Solution
p2
c__builtin__
object
p3
NtRp4
(lp5
(lp6
F0.9914035959609816
aF0.22827456193168266
aF-31.396692462467694
aF-1.0137158736517224
aF158.31310255791672
aF1.4594336092332187
aF-254.51873298292176
aF-0.65293175668233261
aF127.63557336504329
aaF0.0044269032432412815
aI228
a(lp7
ab.ccopy_reg
_reconstructor
p1
(crepresentations
Solution
p2
c__builtin__
object
p3
NtRp4
(lp5
(lp6
F0.9914035959609816
aF0.22827456193168266
aF-31.396692462467694
aF-1.0137158736517224
aF158.31310255791672
aF1.4594336092332187
aF-254.51873298292176
aF-0.65293175668233261
aF127.63557336504329
aaF0.0044269032432412815
aI228
a(lp7
ab.ccopy_reg
_reconstructor
p1
(crepresentations
Solution
p2
c__builtin__
object
p3
NtRp4
(lp5
(lp6
F0.9914035959609816
aF0.22827456193168266
aF-31.396692462467694
aF-1.0137158736517224
aF158.31310255791672
aF1.4594336092332187
aF-254.51873298292176
aF-0.65293175668233261
aF127.63557336504329
aaF0.0044269032432412815
aI228
a(lp7
ab.ccopy_reg
_reconstructor
p1
(crepresentations
Solution
p2
c__builtin__
object
p3
NtRp4
(lp5
(lp6
F0.9914035959609816
aF0.22827456193168266
aF-31.396692462467694
aF-1.0137158736517224
aF158.31310255791672
aF1.4594336092332187
aF-254.51873298292176
aF-0.65293175668233261
aF127.63557336504329
aaF0.0044269032432412815
aI228
a(lp7
ab.ccopy_reg
_reconstructor
p1
(crepresentations
Solution
p2
c__builtin__
object
p3
NtRp4
(lp5
(lp6
F0.9914035959609816
aF0.22827456193168266
aF-31.396692462467694
aF-1.0137158736517224
aF158.31310255791672
aF1.4594336092332187
aF-254.51873298292176
aF-0.65293175668233261
aF127.63557336504329
aaF0.0044269032432412815
aI228
a(lp7
ab.ccopy_reg
_reconstructor
p1
(crepresentations
Solution
p2
c__builtin__
object
p3
NtRp4
(lp5
(lp6
F0.9914035959609816
aF0.22827456193168266
aF-31.396692462467694
aF-1.0137158736517224
aF158.31310255791672
aF1.4594336092332187
aF-254.51873298292176
aF-0.65293175668233261
aF127.63557336504329
aaF0.0044269032432412815
aI228
a(lp7
ab.ccopy_reg
_reconstructor
p1
(crepresentations
Solution
p2
c__builtin__
object
p3
NtRp4
(lp5
(lp6
F0.9914035959609816
aF0.22827456193168266
aF-31.396692462467694
aF-1.0137158736517224
aF158.31310255791672
aF1.4594336092332187
aF-254.51873298292176
aF-0.65293175668233261
aF127.63557336504329
aaF0.0044269032432412815
aI228
a(lp7
ab.ccopy_reg
_reconstructor
p1
(crepresentations
Solution
p2
c__builtin__
object
p3
NtRp4
(lp5
(lp6
F0.9914035959609816
aF0.22827456193168266
aF-31.396692462467694
aF-1.0137158736517224
aF158.31310255791672
aF1.4594336092332187
aF-254.51873298292176
aF-0.65293175668233261
aF127.63557336504329
aaF0.0044269032432412815
aI228
a(lp7
ab.ccopy_reg
_reconstructor
p1
(crepresentations
Solution
p2
c__builtin__
object
p3
NtRp4
(lp5
(lp6
F0.9914035959609816
aF0.22827456193168266
aF-31.396692462467694
aF-1.0137158736517224
aF158.31310255791672
aF1.4594336092332187
aF-254.51873298292176
aF-0.65293175668233261
aF127.63557336504329
aaF0.0044269032432412815
aI228
a(lp7
ab.ccopy_reg
_reconstructor
p1
(crepresentations
Solution
p2
c__builtin__
object
p3
NtRp4
(lp5
(lp6
F0.9914035959609816
aF0.22827456193168266
aF-31.396692462467694
aF-1.0137158736517224
aF158.31310255791672
aF1.4594336092332187
aF-254.51873298292176
aF-0.65293175668233261
aF127.63557336504329
aaF0.0044269032432412815
aI228
a(lp7
ab.ccopy_reg
_reconstructor
p1
(crepresentations
Solution
p2
c__builtin__
object
p3
NtRp4
(lp5
(lp6
F0.9914035959609816
aF0.22827456193168266
aF-31.396692462467694
aF-1.0137158736517224
aF158.31310255791672
aF1.4594336092332187
aF-254.51873298292176
aF-0.65293175668233261
aF127.63557336504329
aaF0.0044269032432412815
aI228
a(lp7
ab.ccopy_reg
_reconstructor
p1
(crepresentations
Solution
p2
c__builtin__
object
p3
NtRp4
(lp5
(lp6
F0.9914035959609816
aF0.22827456193168266
aF-31.396692462467694
aF-1.0137158736517224
aF158.31310255791672
aF1.4594336092332187
aF-254.51873298292176
aF-0.65293175668233261
aF127.63557336504329
aaF0.0044269032432412815
aI228
a(lp7
ab.ccopy_reg
_reconstructor
p1
(crepresentations
Solution
p2
c__builtin__
object
p3
NtRp4
(lp5
(lp6
F0.9914035959609816
aF0.22827456193168266
aF-31.396692462467694
aF-1.0137158736517224
aF158.31310255791672
aF1.4594336092332187
aF-254.51873298292176
aF-0.65293175668233261
aF127.63557336504329
aaF0.0044269032432412815
aI228
a(lp7
ab.ccopy_reg
_reconstructor
p1
(crepresentations
Solution
p2
c__builtin__
object
p3
NtRp4
(lp5
(lp6
F0.9914035959609816
aF0.22827456193168266
aF-31.396692462467694
aF-1.0137158736517224
aF158.31310255791672
aF1.4594336092332187
aF-254.51873298292176
aF-0.65293175668233261
aF127.63557336504329
aaF0.0044269032432412815
aI228
a(lp7
ab.ccopy_reg
_reconstructor
p1
(crepresentations
Solution
p2
c__builtin__
object
p3
NtRp4
(lp5
(lp6
F0.9914035959609816
aF0.22827456193168266
aF-31.396692462467694
aF-1.0137158736517224
aF158.31310255791672
aF1.4594336092332187
aF-254.51873298292176
aF-0.65293175668233261
aF127.63557336504329
aaF0.0044269032432412815
aI228
a(lp7
ab.ccopy_reg
_reconstructor
p1
(crepresentations
Solution
p2
c__builtin__
object
p3
NtRp4
(lp5
(lp6
F0.9914035959609816
aF0.22827456193168266
aF-31.396692462467694
aF-1.0137158736517224
aF158.31310255791672
aF1.4594336092332187
aF-254.51873298292176
aF-0.65293175668233261
aF127.63557336504329
aaF0.0044269032432412815
aI228
a(lp7
ab.ccopy_reg
_reconstructor
p1
(crepresentations
Solution
p2
c__builtin__
object
p3
NtRp4
(lp5
(lp6
F0.98989377240191301
aF0.1234793337014978
aF-31.611158691793047
aF-0.5047152128781438
aF158.75279090241938
aF0.65682887713162774
aF-254.69119628024265
aF-0.25169316014816628
aF127.59427306497321
aaF0.0036509454933395945
aI250
a(lp7
ab.ccopy_reg
_reconstructor
p1
(crepresentations
Solution
p2
c__builtin__
object
p3
NtRp4
(lp5
(lp6
F0.98989377240191301
aF0.1234793337014978
aF-31.611158691793047
aF-0.5047152128781438
aF158.75279090241938
aF0.65682887713162774
aF-254.69119628024265
aF-0.25169316014816628
aF127.59427306497321
aaF0.0036509454933395945
aI250
a(lp7
ab.ccopy_reg
_reconstructor
p1
(crepresentations
Solution
p2
c__builtin__
object
p3
NtRp4
(lp5
(lp6
F0.98989377240191301
aF0.1234793337014978
aF-31.611158691793047
aF-0.5047152128781438
aF158.75279090241938
aF0.65682887713162774
aF-254.69119628024265
aF-0.25169316014816628
aF127.59427306497321
aaF0.0036509454933395945
aI250
a(lp7
ab.ccopy_reg
_reconstructor
p1
(crepresentations
Solution
p2
c__builtin__
object
p3
NtRp4
(lp5
(lp6
F0.98989377240191301
aF0.1234793337014978
aF-31.611158691793047
aF-0.5047152128781438
aF158.75279090241938
aF0.65682887713162774
aF-254.69119628024265
aF-0.25169316014816628
aF127.59427306497321
aaF0.0036509454933395945
aI250
a(lp7
ab.ccopy_reg
_reconstructor
p1
(crepresentations
Solution
p2
c__builtin__
object
p3
NtRp4
(lp5
(lp6
F0.98989377240191301
aF0.1234793337014978
aF-31.611158691793047
aF-0.5047152128781438
aF158.75279090241938
aF0.65682887713162774
aF-254.69119628024265
aF-0.25169316014816628
aF127.59427306497321
aaF0.0036509454933395945
aI250
a(lp7
ab.ccopy_reg
_reconstructor
p1
(crepresentations
Solution
p2
c__builtin__
object
p3
NtRp4
(lp5
(lp6
F0.98989377240191301
aF0.1234793337014978
aF-31.611158691793047
aF-0.5047152128781438
aF158.75279090241938
aF0.65682887713162774
aF-254.69119628024265
aF-0.25169316014816628
aF127.59427306497321
aaF0.0036509454933395945
aI250
a(lp7
ab.ccopy_reg
_reconstructor
p1
(crepresentations
Solution
p2
c__builtin__
object
p3
NtRp4
(lp5
(lp6
F0.98989377240191301
aF0.1234793337014978
aF-31.611158691793047
aF-0.5047152128781438
aF158.75279090241938
aF0.65682887713162774
aF-254.69119628024265
aF-0.25169316014816628
aF127.59427306497321
aaF0.0036509454933395945
aI250
a(lp7
ab.ccopy_reg
_reconstructor
p1
(crepresentations
Solution
p2
c__builtin__
object
p3
NtRp4
(lp5
(lp6
F0.98989377240191301
aF0.1234793337014978
aF-31.611158691793047
aF-0.5047152128781438
aF158.75279090241938
aF0.65682887713162774
aF-254.69119628024265
aF-0.25169316014816628
aF127.59427306497321
aaF0.0036509454933395945
aI250
a(lp7
ab.ccopy_reg
_reconstructor
p1
(crepresentations
Solution
p2
c__builtin__
object
p3
NtRp4
(lp5
(lp6
F0.98989377240191301
aF0.1234793337014978
aF-31.611158691793047
aF-0.5047152128781438
aF158.75279090241938
aF0.65682887713162774
aF-254.69119628024265
aF-0.25169316014816628
aF127.59427306497321
aaF0.0036509454933395945
aI250
a(lp7
ab.ccopy_reg
_reconstructor
p1
(crepresentations
Solution
p2
c__builtin__
object
p3
NtRp4
(lp5
(lp6
F0.98989377240191301
aF0.1234793337014978
aF-31.611158691793047
aF-0.5047152128781438
aF158.75279090241938
aF0.65682887713162774
aF-254.69119628024265
aF-0.25169316014816628
aF127.59427306497321
aaF0.0036509454933395945
aI250
a(lp7
ab.ccopy_reg
_reconstructor
p1
(crepresentations
Solution
p2
c__builtin__
object
p3
NtRp4
(lp5
(lp6
F0.98989377240191301
aF0.1234793337014978
aF-31.611158691793047
aF-0.5047152128781438
aF158.75279090241938
aF0.65682887713162774
aF-254.69119628024265
aF-0.25169316014816628
aF127.59427306497321
aaF0.0036509454933395945
aI250
a(lp7
ab.ccopy_reg
_reconstructor
p1
(crepresentations
Solution
p2
c__builtin__
object
p3
NtRp4
(lp5
(lp6
F0.98989377240191301
aF0.1234793337014978
aF-31.611158691793047
aF-0.5047152128781438
aF158.75279090241938
aF0.65682887713162774
aF-254.69119628024265
aF-0.25169316014816628
aF127.59427306497321
aaF0.0036509454933395945
aI250
a(lp7
ab.ccopy_reg
_reconstructor
p1
(crepresentations
Solution
p2
c__builtin__
object
p3
NtRp4
(lp5
(lp6
F0.92449502845252096
aF0.0080769328517742711
aF-31.069291212918792
aF0.0068907410737629737
aF157.21588123408546
aF0.060789038587982458
aF-253.2197338139849
aF-0.048327346529717374
aF127.16639975743553
aaF0.0020412648442137771
aI262
a(lp7
ab.ccopy_reg
_reconstructor
p1
(crepresentations
Solution
p2
c__builtin__
object
p3
NtRp4
(lp5
(lp6
F0.92449502845252096
aF0.0080769328517742711
aF-31.069291212918792
aF0.0068907410737629737
aF157.21588123408546
aF0.060789038587982458
aF-253.2197338139849
aF-0.048327346529717374
aF127.16639975743553
aaF0.0020412648442137771
aI262
a(lp7
ab.ccopy_reg
_reconstructor
p1
(crepresentations
Solution
p2
c__builtin__
object
p3
NtRp4
(lp5
(lp6
F0.92449502845252096
aF0.0080769328517742711
aF-31.069291212918792
aF0.0068907410737629737
aF157.21588123408546
aF0.060789038587982458
aF-253.2197338139849
aF-0.048327346529717374
aF127.16639975743553
aaF0.0020412648442137771
aI262
a(lp7
ab.ccopy_reg
_reconstructor
p1
(crepresentations
Solution
p2
c__builtin__
object
p3
NtRp4
(lp5
(lp6
F0.92449502845252096
aF0.0080769328517742711
aF-31.069291212918792
aF0.0068907410737629737
aF157.21588123408546
aF0.060789038587982458
aF-253.2197338139849
aF-0.048327346529717374
aF127.16639975743553
aaF0.0020412648442137771
aI262
a(lp7
ab.ccopy_reg
_reconstructor
p1
(crepresentations
Solution
p2
c__builtin__
object
p3
NtRp4
(lp5
(lp6
F0.92449502845252096
aF0.0080769328517742711
aF-31.069291212918792
aF0.0068907410737629737
aF157.21588123408546
aF0.060789038587982458
aF-253.2197338139849
aF-0.048327346529717374
aF127.16639975743553
aaF0.0020412648442137771
aI262
a(lp7
ab.ccopy_reg
_reconstructor
p1
(crepresentations
Solution
p2
c__builtin__
object
p3
NtRp4
(lp5
(lp6
F0.92449502845252096
aF0.0080769328517742711
aF-31.069291212918792
aF0.0068907410737629737
aF157.21588123408546
aF0.060789038587982458
aF-253.2197338139849
aF-0.048327346529717374
aF127.16639975743553
aaF0.0020412648442137771
aI262
a(lp7
ab.ccopy_reg
_reconstructor
p1
(crepresentations
Solution
p2
c__builtin__
object
p3
NtRp4
(lp5
(lp6
F0.92449502845252096
aF0.0080769328517742711
aF-31.069291212918792
aF0.0068907410737629737
aF157.21588123408546
aF0.060789038587982458
aF-253.2197338139849
aF-0.048327346529717374
aF127.16639975743553
aaF0.0020412648442137771
aI262
a(lp7
ab.ccopy_reg
_reconstructor
p1
(crepresentations
Solution
p2
c__builtin__
object
p3
NtRp4
(lp5
(lp6
F0.92449502845252096
aF0.0080769328517742711
aF-31.069291212918792
aF0.0068907410737629737
aF157.21588123408546
aF0.060789038587982458
aF-253.2197338139849
aF-0.048327346529717374
aF127.16639975743553
aaF0.0020412648442137771
aI262
a(lp7
ab.ccopy_reg
_reconstructor
p1
(crepresentations
Solution
p2
c__builtin__
object
p3
NtRp4
(lp5
(lp6
F0.92449502845252096
aF0.0080769328517742711
aF-31.069291212918792
aF0.0068907410737629737
aF157.21588123408546
aF0.060789038587982458
aF-253.2197338139849
aF-0.048327346529717374
aF127.16639975743553
aaF0.0020412648442137771
aI262
a(lp7
ab.ccopy_reg
_reconstructor
p1
(crepresentations
Solution
p2
c__builtin__
object
p3
NtRp4
(lp5
(lp6
F1.0118931309574508
aF-0.0068297686028979
aF-31.985382226691815
aF0.058408519900638473
aF159.85950322760749
aF0.12962386488205874
aF-255.96788876373779
aF-0.17031321876856775
aF128.09104346921282
aaF0.0009806592977703451
aI271
a(lp7
ab.ccopy_reg
_reconstructor
p1
(crepresentations
Solution
p2
c__builtin__
object
p3
NtRp4
(lp5
(lp6
F1.0118931309574508
aF-0.0068297686028979
aF-31.985382226691815
aF0.058408519900638473
aF159.85950322760749
aF0.12962386488205874
aF-255.96788876373779
aF-0.17031321876856775
aF128.09104346921282
aaF0.0009806592977703451
aI271
a(lp7
ab.ccopy_reg
_reconstructor
p1
(crepresentations
Solution
p2
c__builtin__
object
p3
NtRp4
(lp5
(lp6
F1.0118931309574508
aF-0.0068297686028979
aF-31.985382226691815
aF0.058408519900638473
aF159.85950322760749
aF0.12962386488205874
aF-255.96788876373779
aF-0.17031321876856775
aF128.09104346921282
aaF0.0009806592977703451
aI271
a(lp7
ab.ccopy_reg
_reconstructor
p1
(crepresentations
Solution
p2
c__builtin__
object
p3
NtRp4
(lp5
(lp6
F1.0118931309574508
aF-0.0068297686028979
aF-31.985382226691815
aF0.058408519900638473
aF159.85950322760749
aF0.12962386488205874
aF-255.96788876373779
aF-0.17031321876856775
aF128.09104346921282
aaF0.0009806592977703451
aI271
a(lp7
ab.ccopy_reg
_reconstructor
p1
(crepresentations
Solution
p2
c__builtin__
object
p3
NtRp4
(lp5
(lp6
F1.0118931309574508
aF-0.0068297686028979
aF-31.985382226691815
aF0.058408519900638473
aF159.85950322760749
aF0.12962386488205874
aF-255.96788876373779
aF-0.17031321876856775
aF128.09104346921282
aaF0.0009806592977703451
aI271
a(lp7
ab.ccopy_reg
_reconstructor
p1
(crepresentations
Solution
p2
c__builtin__
object
p3
NtRp4
(lp5
(lp6
F1.0118931309574508
aF-0.0068297686028979
aF-31.985382226691815
aF0.058408519900638473
aF159.85950322760749
aF0.12962386488205874
aF-255.96788876373779
aF-0.17031321876856775
aF128.09104346921282
aaF0.0009806592977703451
aI271
a(lp7
ab.ccopy_reg
_reconstructor
p1
(crepresentations
Solution
p2
c__builtin__
object
p3
NtRp4
(lp5
(lp6
F1.0118931309574508
aF-0.0068297686028979
aF-31.985382226691815
aF0.058408519900638473
aF159.85950322760749
aF0.12962386488205874
aF-255.96788876373779
aF-0.17031321876856775
aF128.09104346921282
aaF0.0009806592977703451
aI271
a(lp7
ab.ccopy_reg
_reconstructor
p1
(crepresentations
Solution
p2
c__builtin__
object
p3
NtRp4
(lp5
(lp6
F1.0118931309574508
aF-0.0068297686028979
aF-31.985382226691815
aF0.058408519900638473
aF159.85950322760749
aF0.12962386488205874
aF-255.96788876373779
aF-0.17031321876856775
aF128.09104346921282
aaF0.0009806592977703451
aI271
a(lp7
ab.ccopy_reg
_reconstructor
p1
(crepresentations
Solution
p2
c__builtin__
object
p3
NtRp4
(lp5
(lp6
F1.0118931309574508
aF-0.0068297686028979
aF-31.985382226691815
aF0.058408519900638473
aF159.85950322760749
aF0.12962386488205874
aF-255.96788876373779
aF-0.17031321876856775
aF128.09104346921282
aaF0.0009806592977703451
aI271
a(lp7
ab.ccopy_reg
_reconstructor
p1
(crepresentations
Solution
p2
c__builtin__
object
p3
NtRp4
(lp5
(lp6
F1.0118931309574508
aF-0.0068297686028979
aF-31.985382226691815
aF0.058408519900638473
aF159.85950322760749
aF0.12962386488205874
aF-255.96788876373779
aF-0.17031321876856775
aF128.09104346921282
aaF0.0009806592977703451
aI271
a(lp7
ab.ccopy_reg
_reconstructor
p1
(crepresentations
Solution
p2
c__builtin__
object
p3
NtRp4
(lp5
(lp6
F1.0118931309574508
aF-0.0068297686028979
aF-31.985382226691815
aF0.058408519900638473
aF159.85950322760749
aF0.12962386488205874
aF-255.96788876373779
aF-0.17031321876856775
aF128.09104346921282
aaF0.0009806592977703451
aI271
a(lp7
ab.ccopy_reg
_reconstructor
p1
(crepresentations
Solution
p2
c__builtin__
object
p3
NtRp4
(lp5
(lp6
F1.0118931309574508
aF-0.0068297686028979
aF-31.985382226691815
aF0.058408519900638473
aF159.85950322760749
aF0.12962386488205874
aF-255.96788876373779
aF-0.17031321876856775
aF128.09104346921282
aaF0.0009806592977703451
aI271
a(lp7
ab.ccopy_reg
_reconstructor
p1
(crepresentations
Solution
p2
c__builtin__
object
p3
NtRp4
(lp5
(lp6
F1.0118931309574508
aF-0.0068297686028979
aF-31.985382226691815
aF0.058408519900638473
aF159.85950322760749
aF0.12962386488205874
aF-255.96788876373779
aF-0.17031321876856775
aF128.09104346921282
aaF0.0009806592977703451
aI271
a(lp7
ab.ccopy_reg
_reconstructor
p1
(crepresentations
Solution
p2
c__builtin__
object
p3
NtRp4
(lp5
(lp6
F1.0118931309574508
aF-0.0068297686028979
aF-31.985382226691815
aF0.058408519900638473
aF159.85950322760749
aF0.12962386488205874
aF-255.96788876373779
aF-0.17031321876856775
aF128.09104346921282
aaF0.0009806592977703451
aI271
a(lp7
ab.ccopy_reg
_reconstructor
p1
(crepresentations
Solution
p2
c__builtin__
object
p3
NtRp4
(lp5
(lp6
F1.0118931309574508
aF-0.0068297686028979
aF-31.985382226691815
aF0.058408519900638473
aF159.85950322760749
aF0.12962386488205874
aF-255.96788876373779
aF-0.17031321876856775
aF128.09104346921282
aaF0.0009806592977703451
aI271
a(lp7
ab.ccopy_reg
_reconstructor
p1
(crepresentations
Solution
p2
c__builtin__
object
p3
NtRp4
(lp5
(lp6
F1.0118931309574508
aF-0.0068297686028979
aF-31.985382226691815
aF0.058408519900638473
aF159.85950322760749
aF0.12962386488205874
aF-255.96788876373779
aF-0.17031321876856775
aF128.09104346921282
aaF0.0009806592977703451
aI271
a(lp7
ab.ccopy_reg
_reconstructor
p1
(crepresentations
Solution
p2
c__builtin__
object
p3
NtRp4
(lp5
(lp6
F1.0118931309574508
aF-0.0068297686028979
aF-31.985382226691815
aF0.058408519900638473
aF159.85950322760749
aF0.12962386488205874
aF-255.96788876373779
aF-0.17031321876856775
aF128.09104346921282
aaF0.0009806592977703451
aI271
a(lp7
ab.ccopy_reg
_reconstructor
p1
(crepresentations
Solution
p2
c__builtin__
object
p3
NtRp4
(lp5
(lp6
F1.0118931309574508
aF-0.0068297686028979
aF-31.985382226691815
aF0.058408519900638473
aF159.85950322760749
aF0.12962386488205874
aF-255.96788876373779
aF-0.17031321876856775
aF128.09104346921282
aaF0.0009806592977703451
aI271
a(lp7
ab.ccopy_reg
_reconstructor
p1
(crepresentations
Solution
p2
c__builtin__
object
p3
NtRp4
(lp5
(lp6
F1.0118931309574508
aF-0.0068297686028979
aF-31.985382226691815
aF0.058408519900638473
aF159.85950322760749
aF0.12962386488205874
aF-255.96788876373779
aF-0.17031321876856775
aF128.09104346921282
aaF0.0009806592977703451
aI271
a(lp7
ab.ccopy_reg
_reconstructor
p1
(crepresentations
Solution
p2
c__builtin__
object
p3
NtRp4
(lp5
(lp6
F1.0118931309574508
aF-0.0068297686028979
aF-31.985382226691815
aF0.058408519900638473
aF159.85950322760749
aF0.12962386488205874
aF-255.96788876373779
aF-0.17031321876856775
aF128.09104346921282
aaF0.0009806592977703451
aI271
a(lp7
ab.ccopy_reg
_reconstructor
p1
(crepresentations
Solution
p2
c__builtin__
object
p3
NtRp4
(lp5
(lp6
F1.0118931309574508
aF-0.0068297686028979
aF-31.985382226691815
aF0.058408519900638473
aF159.85950322760749
aF0.12962386488205874
aF-255.96788876373779
aF-0.17031321876856775
aF128.09104346921282
aaF0.0009806592977703451
aI271
a(lp7
ab.ccopy_reg
_reconstructor
p1
(crepresentations
Solution
p2
c__builtin__
object
p3
NtRp4
(lp5
(lp6
F1.0118931309574508
aF-0.0068297686028979
aF-31.985382226691815
aF0.058408519900638473
aF159.85950322760749
aF0.12962386488205874
aF-255.96788876373779
aF-0.17031321876856775
aF128.09104346921282
aaF0.0009806592977703451
aI271
a(lp7
ab.ccopy_reg
_reconstructor
p1
(crepresentations
Solution
p2
c__builtin__
object
p3
NtRp4
(lp5
(lp6
F1.0118931309574508
aF-0.0068297686028979
aF-31.985382226691815
aF0.058408519900638473
aF159.85950322760749
aF0.12962386488205874
aF-255.96788876373779
aF-0.17031321876856775
aF128.09104346921282
aaF0.0009806592977703451
aI271
a(lp7
ab.ccopy_reg
_reconstructor
p1
(crepresentations
Solution
p2
c__builtin__
object
p3
NtRp4
(lp5
(lp6
F0.9512891992019602
aF-0.040892425486662096
aF-31.320845857531392
aF0.60607039483526415
aF158.59317560432166
aF-0.98327399685773464
aF-255.1524074320167
aF0.40612225872600982
aF127.92179305851781
aaF0.00066960754133421597
aI294
a(lp7
ab.ccopy_reg
_reconstructor
p1
(crepresentations
Solution
p2
c__builtin__
object
p3
NtRp4
(lp5
(lp6
F0.9512891992019602
aF-0.040892425486662096
aF-31.320845857531392
aF0.60607039483526415
aF158.59317560432166
aF-0.98327399685773464
aF-255.1524074320167
aF0.40612225872600982
aF127.92179305851781
aaF0.00066960754133421597
aI294
a(lp7
ab.ccopy_reg
_reconstructor
p1
(crepresentations
Solution
p2
c__builtin__
object
p3
NtRp4
(lp5
(lp6
F0.9512891992019602
aF-0.040892425486662096
aF-31.320845857531392
aF0.60607039483526415
aF158.59317560432166
aF-0.98327399685773464
aF-255.1524074320167
aF0.40612225872600982
aF127.92179305851781
aaF0.00066960754133421597
aI294
a(lp7
ab.ccopy_reg
_reconstructor
p1
(crepresentations
Solution
p2
c__builtin__
object
p3
NtRp4
(lp5
(lp6
F0.9512891992019602
aF-0.040892425486662096
aF-31.320845857531392
aF0.60607039483526415
aF158.59317560432166
aF-0.98327399685773464
aF-255.1524074320167
aF0.40612225872600982
aF127.92179305851781
aaF0.00066960754133421597
aI294
a(lp7
ab.ccopy_reg
_reconstructor
p1
(crepresentations
Solution
p2
c__builtin__
object
p3
NtRp4
(lp5
(lp6
F0.9512891992019602
aF-0.040892425486662096
aF-31.320845857531392
aF0.60607039483526415
aF158.59317560432166
aF-0.98327399685773464
aF-255.1524074320167
aF0.40612225872600982
aF127.92179305851781
aaF0.00066960754133421597
aI294
a(lp7
ab.ccopy_reg
_reconstructor
p1
(crepresentations
Solution
p2
c__builtin__
object
p3
NtRp4
(lp5
(lp6
F0.9512891992019602
aF-0.040892425486662096
aF-31.320845857531392
aF0.60607039483526415
aF158.59317560432166
aF-0.98327399685773464
aF-255.1524074320167
aF0.40612225872600982
aF127.92179305851781
aaF0.00066960754133421597
aI294
a(lp7
ab.ccopy_reg
_reconstructor
p1
(crepresentations
Solution
p2
c__builtin__
object
p3
NtRp4
(lp5
(lp6
F0.9512891992019602
aF-0.040892425486662096
aF-31.320845857531392
aF0.60607039483526415
aF158.59317560432166
aF-0.98327399685773464
aF-255.1524074320167
aF0.40612225872600982
aF127.92179305851781
aaF0.00066960754133421597
aI294
a(lp7
ab.ccopy_reg
_reconstructor
p1
(crepresentations
Solution
p2
c__builtin__
object
p3
NtRp4
(lp5
(lp6
F0.9512891992019602
aF-0.040892425486662096
aF-31.320845857531392
aF0.60607039483526415
aF158.59317560432166
aF-0.98327399685773464
aF-255.1524074320167
aF0.40612225872600982
aF127.92179305851781
aaF0.00066960754133421597
aI294
a(lp7
ab.ccopy_reg
_reconstructor
p1
(crepresentations
Solution
p2
c__builtin__
object
p3
NtRp4
(lp5
(lp6
F0.9512891992019602
aF-0.040892425486662096
aF-31.320845857531392
aF0.60607039483526415
aF158.59317560432166
aF-0.98327399685773464
aF-255.1524074320167
aF0.40612225872600982
aF127.92179305851781
aaF0.00066960754133421597
aI294
a(lp7
ab.ccopy_reg
_reconstructor
p1
(crepresentations
Solution
p2
c__builtin__
object
p3
NtRp4
(lp5
(lp6
F0.9512891992019602
aF-0.040892425486662096
aF-31.320845857531392
aF0.60607039483526415
aF158.59317560432166
aF-0.98327399685773464
aF-255.1524074320167
aF0.40612225872600982
aF127.92179305851781
aaF0.00066960754133421597
aI294
a(lp7
ab.ccopy_reg
_reconstructor
p1
(crepresentations
Solution
p2
c__builtin__
object
p3
NtRp4
(lp5
(lp6
F0.9512891992019602
aF-0.040892425486662096
aF-31.320845857531392
aF0.60607039483526415
aF158.59317560432166
aF-0.98327399685773464
aF-255.1524074320167
aF0.40612225872600982
aF127.92179305851781
aaF0.00066960754133421597
aI294
a(lp7
ab.ccopy_reg
_reconstructor
p1
(crepresentations
Solution
p2
c__builtin__
object
p3
NtRp4
(lp5
(lp6
F0.9512891992019602
aF-0.040892425486662096
aF-31.320845857531392
aF0.60607039483526415
aF158.59317560432166
aF-0.98327399685773464
aF-255.1524074320167
aF0.40612225872600982
aF127.92179305851781
aaF0.00066960754133421597
aI294
a(lp7
ab.ccopy_reg
_reconstructor
p1
(crepresentations
Solution
p2
c__builtin__
object
p3
NtRp4
(lp5
(lp6
F0.9512891992019602
aF-0.040892425486662096
aF-31.320845857531392
aF0.60607039483526415
aF158.59317560432166
aF-0.98327399685773464
aF-255.1524074320167
aF0.40612225872600982
aF127.92179305851781
aaF0.00066960754133421597
aI294
a(lp7
ab.ccopy_reg
_reconstructor
p1
(crepresentations
Solution
p2
c__builtin__
object
p3
NtRp4
(lp5
(lp6
F0.9512891992019602
aF-0.040892425486662096
aF-31.320845857531392
aF0.60607039483526415
aF158.59317560432166
aF-0.98327399685773464
aF-255.1524074320167
aF0.40612225872600982
aF127.92179305851781
aaF0.00066960754133421597
aI294
a(lp7
ab.ccopy_reg
_reconstructor
p1
(crepresentations
Solution
p2
c__builtin__
object
p3
NtRp4
(lp5
(lp6
F0.9512891992019602
aF-0.040892425486662096
aF-31.320845857531392
aF0.60607039483526415
aF158.59317560432166
aF-0.98327399685773464
aF-255.1524074320167
aF0.40612225872600982
aF127.92179305851781
aaF0.00066960754133421597
aI294
a(lp7
ab.ccopy_reg
_reconstructor
p1
(crepresentations
Solution
p2
c__builtin__
object
p3
NtRp4
(lp5
(lp6
F0.9512891992019602
aF-0.040892425486662096
aF-31.320845857531392
aF0.60607039483526415
aF158.59317560432166
aF-0.98327399685773464
aF-255.1524074320167
aF0.40612225872600982
aF127.92179305851781
aaF0.00066960754133421597
aI294
a(lp7
ab.ccopy_reg
_reconstructor
p1
(crepresentations
Solution
p2
c__builtin__
object
p3
NtRp4
(lp5
(lp6
F0.9512891992019602
aF-0.040892425486662096
aF-31.320845857531392
aF0.60607039483526415
aF158.59317560432166
aF-0.98327399685773464
aF-255.1524074320167
aF0.40612225872600982
aF127.92179305851781
aaF0.00066960754133421597
aI294
a(lp7
ab.ccopy_reg
_reconstructor
p1
(crepresentations
Solution
p2
c__builtin__
object
p3
NtRp4
(lp5
(lp6
F0.9512891992019602
aF-0.040892425486662096
aF-31.320845857531392
aF0.60607039483526415
aF158.59317560432166
aF-0.98327399685773464
aF-255.1524074320167
aF0.40612225872600982
aF127.92179305851781
aaF0.00066960754133421597
aI294
a(lp7
ab.ccopy_reg
_reconstructor
p1
(crepresentations
Solution
p2
c__builtin__
object
p3
NtRp4
(lp5
(lp6
F0.9512891992019602
aF-0.040892425486662096
aF-31.320845857531392
aF0.60607039483526415
aF158.59317560432166
aF-0.98327399685773464
aF-255.1524074320167
aF0.40612225872600982
aF127.92179305851781
aaF0.00066960754133421597
aI294
a(lp7
ab.ccopy_reg
_reconstructor
p1
(crepresentations
Solution
p2
c__builtin__
object
p3
NtRp4
(lp5
(lp6
F0.9512891992019602
aF-0.040892425486662096
aF-31.320845857531392
aF0.60607039483526415
aF158.59317560432166
aF-0.98327399685773464
aF-255.1524074320167
aF0.40612225872600982
aF127.92179305851781
aaF0.00066960754133421597
aI294
a(lp7
ab.ccopy_reg
_reconstructor
p1
(crepresentations
Solution
p2
c__builtin__
object
p3
NtRp4
(lp5
(lp6
F0.9512891992019602
aF-0.040892425486662096
aF-31.320845857531392
aF0.60607039483526415
aF158.59317560432166
aF-0.98327399685773464
aF-255.1524074320167
aF0.40612225872600982
aF127.92179305851781
aaF0.00066960754133421597
aI294
a(lp7
ab.ccopy_reg
_reconstructor
p1
(crepresentations
Solution
p2
c__builtin__
object
p3
NtRp4
(lp5
(lp6
F0.9512891992019602
aF-0.040892425486662096
aF-31.320845857531392
aF0.60607039483526415
aF158.59317560432166
aF-0.98327399685773464
aF-255.1524074320167
aF0.40612225872600982
aF127.92179305851781
aaF0.00066960754133421597
aI294
a(lp7
ab.ccopy_reg
_reconstructor
p1
(crepresentations
Solution
p2
c__builtin__
object
p3
NtRp4
(lp5
(lp6
F0.9512891992019602
aF-0.040892425486662096
aF-31.320845857531392
aF0.60607039483526415
aF158.59317560432166
aF-0.98327399685773464
aF-255.1524074320167
aF0.40612225872600982
aF127.92179305851781
aaF0.00066960754133421597
aI294
a(lp7
ab.ccopy_reg
_reconstructor
p1
(crepresentations
Solution
p2
c__builtin__
object
p3
NtRp4
(lp5
(lp6
F0.9512891992019602
aF-0.040892425486662096
aF-31.320845857531392
aF0.60607039483526415
aF158.59317560432166
aF-0.98327399685773464
aF-255.1524074320167
aF0.40612225872600982
aF127.92179305851781
aaF0.00066960754133421597
aI294
a(lp7
ab.ccopy_reg
_reconstructor
p1
(crepresentations
Solution
p2
c__builtin__
object
p3
NtRp4
(lp5
(lp6
F0.9512891992019602
aF-0.040892425486662096
aF-31.320845857531392
aF0.60607039483526415
aF158.59317560432166
aF-0.98327399685773464
aF-255.1524074320167
aF0.40612225872600982
aF127.92179305851781
aaF0.00066960754133421597
aI294
a(lp7
ab.ccopy_reg
_reconstructor
p1
(crepresentations
Solution
p2
c__builtin__
object
p3
NtRp4
(lp5
(lp6
F0.9512891992019602
aF-0.040892425486662096
aF-31.320845857531392
aF0.60607039483526415
aF158.59317560432166
aF-0.98327399685773464
aF-255.1524074320167
aF0.40612225872600982
aF127.92179305851781
aaF0.00066960754133421597
aI294
a(lp7
ab.ccopy_reg
_reconstructor
p1
(crepresentations
Solution
p2
c__builtin__
object
p3
NtRp4
(lp5
(lp6
F0.9512891992019602
aF-0.040892425486662096
aF-31.320845857531392
aF0.60607039483526415
aF158.59317560432166
aF-0.98327399685773464
aF-255.1524074320167
aF0.40612225872600982
aF127.92179305851781
aaF0.00066960754133421597
aI294
a(lp7
ab.ccopy_reg
_reconstructor
p1
(crepresentations
Solution
p2
c__builtin__
object
p3
NtRp4
(lp5
(lp6
F0.9512891992019602
aF-0.040892425486662096
aF-31.320845857531392
aF0.60607039483526415
aF158.59317560432166
aF-0.98327399685773464
aF-255.1524074320167
aF0.40612225872600982
aF127.92179305851781
aaF0.00066960754133421597
aI294
a(lp7
ab.ccopy_reg
_reconstructor
p1
(crepresentations
Solution
p2
c__builtin__
object
p3
NtRp4
(lp5
(lp6
F0.9512891992019602
aF-0.040892425486662096
aF-31.320845857531392
aF0.60607039483526415
aF158.59317560432166
aF-0.98327399685773464
aF-255.1524074320167
aF0.40612225872600982
aF127.92179305851781
aaF0.00066960754133421597
aI294
a(lp7
ab.ccopy_reg
_reconstructor
p1
(crepresentations
Solution
p2
c__builtin__
object
p3
NtRp4
(lp5
(lp6
F0.9512891992019602
aF-0.040892425486662096
aF-31.320845857531392
aF0.60607039483526415
aF158.59317560432166
aF-0.98327399685773464
aF-255.1524074320167
aF0.40612225872600982
aF127.92179305851781
aaF0.00066960754133421597
aI294
a(lp7
ab.ccopy_reg
_reconstructor
p1
(crepresentations
Solution
p2
c__builtin__
object
p3
NtRp4
(lp5
(lp6
F0.9512891992019602
aF-0.040892425486662096
aF-31.320845857531392
aF0.60607039483526415
aF158.59317560432166
aF-0.98327399685773464
aF-255.1524074320167
aF0.40612225872600982
aF127.92179305851781
aaF0.00066960754133421597
aI294
a(lp7
ab.ccopy_reg
_reconstructor
p1
(crepresentations
Solution
p2
c__builtin__
object
p3
NtRp4
(lp5
(lp6
F0.9512891992019602
aF-0.040892425486662096
aF-31.320845857531392
aF0.60607039483526415
aF158.59317560432166
aF-0.98327399685773464
aF-255.1524074320167
aF0.40612225872600982
aF127.92179305851781
aaF0.00066960754133421597
aI294
a(lp7
ab.ccopy_reg
_reconstructor
p1
(crepresentations
Solution
p2
c__builtin__
object
p3
NtRp4
(lp5
(lp6
F0.9512891992019602
aF-0.040892425486662096
aF-31.320845857531392
aF0.60607039483526415
aF158.59317560432166
aF-0.98327399685773464
aF-255.1524074320167
aF0.40612225872600982
aF127.92179305851781
aaF0.00066960754133421597
aI294
a(lp7
ab.ccopy_reg
_reconstructor
p1
(crepresentations
Solution
p2
c__builtin__
object
p3
NtRp4
(lp5
(lp6
F0.9512891992019602
aF-0.040892425486662096
aF-31.320845857531392
aF0.60607039483526415
aF158.59317560432166
aF-0.98327399685773464
aF-255.1524074320167
aF0.40612225872600982
aF127.92179305851781
aaF0.00066960754133421597
aI294
a(lp7
ab.ccopy_reg
_reconstructor
p1
(crepresentations
Solution
p2
c__builtin__
object
p3
NtRp4
(lp5
(lp6
F0.95079965772352881
aF0.043223216948846205
aF-31.38146632655301
aF-0.5135244276868709
aF158.47283415126873
aF0.91263560377860142
aF-254.77302588026549
aF-0.44194085550314177
aF127.74108032311332
aaF0.00036823928885104006
aI328
a(lp7
ab.ccopy_reg
_reconstructor
p1
(crepresentations
Solution
p2
c__builtin__
object
p3
NtRp4
(lp5
(lp6
F0.95079965772352881
aF0.043223216948846205
aF-31.38146632655301
aF-0.5135244276868709
aF158.47283415126873
aF0.91263560377860142
aF-254.77302588026549
aF-0.44194085550314177
aF127.74108032311332
aaF0.00036823928885104006
aI328
a(lp7
ab.ccopy_reg
_reconstructor
p1
(crepresentations
Solution
p2
c__builtin__
object
p3
NtRp4
(lp5
(lp6
F0.95079965772352881
aF0.043223216948846205
aF-31.38146632655301
aF-0.5135244276868709
aF158.47283415126873
aF0.91263560377860142
aF-254.77302588026549
aF-0.44194085550314177
aF127.74108032311332
aaF0.00036823928885104006
aI328
a(lp7
ab.ccopy_reg
_reconstructor
p1
(crepresentations
Solution
p2
c__builtin__
object
p3
NtRp4
(lp5
(lp6
F0.95532806160828476
aF0.0093078558943769651
aF-31.169392392420018
aF-0.001955084916311467
aF157.31236733966057
aF0.020692540854300834
aF-253.14828794759796
aF-0.023007202302372576
aF127.05941863636421
aaF0.00025228037250103714
aI331
a(lp7
ab.ccopy_reg
_reconstructor
p1
(crepresentations
Solution
p2
c__builtin__
object
p3
NtRp4
(lp5
(lp6
F0.95532806160828476
aF0.0093078558943769651
aF-31.169392392420018
aF-0.001955084916311467
aF157.31236733966057
aF0.020692540854300834
aF-253.14828794759796
aF-0.023007202302372576
aF127.05941863636421
aaF0.00025228037250103714
aI331
a(lp7
ab.ccopy_reg
_reconstructor
p1
(crepresentations
Solution
p2
c__builtin__
object
p3
NtRp4
(lp5
(lp6
F0.95532806160828476
aF0.0093078558943769651
aF-31.169392392420018
aF-0.001955084916311467
aF157.31236733966057
aF0.020692540854300834
aF-253.14828794759796
aF-0.023007202302372576
aF127.05941863636421
aaF0.00025228037250103714
aI331
a(lp7
ab.ccopy_reg
_reconstructor
p1
(crepresentations
Solution
p2
c__builtin__
object
p3
NtRp4
(lp5
(lp6
F0.95532806160828476
aF0.0093078558943769651
aF-31.169392392420018
aF-0.001955084916311467
aF157.31236733966057
aF0.020692540854300834
aF-253.14828794759796
aF-0.023007202302372576
aF127.05941863636421
aaF0.00025228037250103714
aI331
a(lp7
ab.ccopy_reg
_reconstructor
p1
(crepresentations
Solution
p2
c__builtin__
object
p3
NtRp4
(lp5
(lp6
F0.95532806160828476
aF0.0093078558943769651
aF-31.169392392420018
aF-0.001955084916311467
aF157.31236733966057
aF0.020692540854300834
aF-253.14828794759796
aF-0.023007202302372576
aF127.05941863636421
aaF0.00025228037250103714
aI331
a(lp7
ab.ccopy_reg
_reconstructor
p1
(crepresentations
Solution
p2
c__builtin__
object
p3
NtRp4
(lp5
(lp6
F0.95532806160828476
aF0.0093078558943769651
aF-31.169392392420018
aF-0.001955084916311467
aF157.31236733966057
aF0.020692540854300834
aF-253.14828794759796
aF-0.023007202302372576
aF127.05941863636421
aaF0.00025228037250103714
aI331
a(lp7
ab.ccopy_reg
_reconstructor
p1
(crepresentations
Solution
p2
c__builtin__
object
p3
NtRp4
(lp5
(lp6
F0.95532806160828476
aF0.0093078558943769651
aF-31.169392392420018
aF-0.001955084916311467
aF157.31236733966057
aF0.020692540854300834
aF-253.14828794759796
aF-0.023007202302372576
aF127.05941863636421
aaF0.00025228037250103714
aI331
a(lp7
ab.ccopy_reg
_reconstructor
p1
(crepresentations
Solution
p2
c__builtin__
object
p3
NtRp4
(lp5
(lp6
F0.95532806160828476
aF0.0093078558943769651
aF-31.169392392420018
aF-0.001955084916311467
aF157.31236733966057
aF0.020692540854300834
aF-253.14828794759796
aF-0.023007202302372576
aF127.05941863636421
aaF0.00025228037250103714
aI331
a(lp7
ab.ccopy_reg
_reconstructor
p1
(crepresentations
Solution
p2
c__builtin__
object
p3
NtRp4
(lp5
(lp6
F0.95532806160828476
aF0.0093078558943769651
aF-31.169392392420018
aF-0.001955084916311467
aF157.31236733966057
aF0.020692540854300834
aF-253.14828794759796
aF-0.023007202302372576
aF127.05941863636421
aaF0.00025228037250103714
aI331
a(lp7
ab.ccopy_reg
_reconstructor
p1
(crepresentations
Solution
p2
c__builtin__
object
p3
NtRp4
(lp5
(lp6
F0.95532806160828476
aF0.0093078558943769651
aF-31.169392392420018
aF-0.001955084916311467
aF157.31236733966057
aF0.020692540854300834
aF-253.14828794759796
aF-0.023007202302372576
aF127.05941863636421
aaF0.00025228037250103714
aI331
a(lp7
ab.ccopy_reg
_reconstructor
p1
(crepresentations
Solution
p2
c__builtin__
object
p3
NtRp4
(lp5
(lp6
F0.95532806160828476
aF0.0093078558943769651
aF-31.169392392420018
aF-0.001955084916311467
aF157.31236733966057
aF0.020692540854300834
aF-253.14828794759796
aF-0.023007202302372576
aF127.05941863636421
aaF0.00025228037250103714
aI331
a(lp7
ab.ccopy_reg
_reconstructor
p1
(crepresentations
Solution
p2
c__builtin__
object
p3
NtRp4
(lp5
(lp6
F0.95532806160828476
aF0.0093078558943769651
aF-31.169392392420018
aF-0.001955084916311467
aF157.31236733966057
aF0.020692540854300834
aF-253.14828794759796
aF-0.023007202302372576
aF127.05941863636421
aaF0.00025228037250103714
aI331
a(lp7
ab.ccopy_reg
_reconstructor
p1
(crepresentations
Solution
p2
c__builtin__
object
p3
NtRp4
(lp5
(lp6
F0.95532806160828476
aF0.0093078558943769651
aF-31.169392392420018
aF-0.001955084916311467
aF157.31236733966057
aF0.020692540854300834
aF-253.14828794759796
aF-0.023007202302372576
aF127.05941863636421
aaF0.00025228037250103714
aI331
a(lp7
ab.ccopy_reg
_reconstructor
p1
(crepresentations
Solution
p2
c__builtin__
object
p3
NtRp4
(lp5
(lp6
F0.95532806160828476
aF0.0093078558943769651
aF-31.169392392420018
aF-0.001955084916311467
aF157.31236733966057
aF0.020692540854300834
aF-253.14828794759796
aF-0.023007202302372576
aF127.05941863636421
aaF0.00025228037250103714
aI331
a(lp7
ab.ccopy_reg
_reconstructor
p1
(crepresentations
Solution
p2
c__builtin__
object
p3
NtRp4
(lp5
(lp6
F0.95532806160828476
aF0.0093078558943769651
aF-31.169392392420018
aF-0.001955084916311467
aF157.31236733966057
aF0.020692540854300834
aF-253.14828794759796
aF-0.023007202302372576
aF127.05941863636421
aaF0.00025228037250103714
aI331
a(lp7
ab.ccopy_reg
_reconstructor
p1
(crepresentations
Solution
p2
c__builtin__
object
p3
NtRp4
(lp5
(lp6
F0.95532806160828476
aF0.0093078558943769651
aF-31.169392392420018
aF-0.001955084916311467
aF157.31236733966057
aF0.020692540854300834
aF-253.14828794759796
aF-0.023007202302372576
aF127.05941863636421
aaF0.00025228037250103714
aI331
a(lp7
ab.ccopy_reg
_reconstructor
p1
(crepresentations
Solution
p2
c__builtin__
object
p3
NtRp4
(lp5
(lp6
F0.95532806160828476
aF0.0093078558943769651
aF-31.169392392420018
aF-0.001955084916311467
aF157.31236733966057
aF0.020692540854300834
aF-253.14828794759796
aF-0.023007202302372576
aF127.05941863636421
aaF0.00025228037250103714
aI331
a(lp7
ab.ccopy_reg
_reconstructor
p1
(crepresentations
Solution
p2
c__builtin__
object
p3
NtRp4
(lp5
(lp6
F0.95532806160828476
aF0.0093078558943769651
aF-31.169392392420018
aF-0.001955084916311467
aF157.31236733966057
aF0.020692540854300834
aF-253.14828794759796
aF-0.023007202302372576
aF127.05941863636421
aaF0.00025228037250103714
aI331
a(lp7
ab.ccopy_reg
_reconstructor
p1
(crepresentations
Solution
p2
c__builtin__
object
p3
NtRp4
(lp5
(lp6
F0.95532806160828476
aF0.0093078558943769651
aF-31.169392392420018
aF-0.001955084916311467
aF157.31236733966057
aF0.020692540854300834
aF-253.14828794759796
aF-0.023007202302372576
aF127.05941863636421
aaF0.00025228037250103714
aI331
a(lp7
ab.ccopy_reg
_reconstructor
p1
(crepresentations
Solution
p2
c__builtin__
object
p3
NtRp4
(lp5
(lp6
F0.95532806160828476
aF0.0093078558943769651
aF-31.169392392420018
aF-0.001955084916311467
aF157.31236733966057
aF0.020692540854300834
aF-253.14828794759796
aF-0.023007202302372576
aF127.05941863636421
aaF0.00025228037250103714
aI331
a(lp7
ab.ccopy_reg
_reconstructor
p1
(crepresentations
Solution
p2
c__builtin__
object
p3
NtRp4
(lp5
(lp6
F0.95532806160828476
aF0.0093078558943769651
aF-31.169392392420018
aF-0.001955084916311467
aF157.31236733966057
aF0.020692540854300834
aF-253.14828794759796
aF-0.023007202302372576
aF127.05941863636421
aaF0.00025228037250103714
aI331
a(lp7
ab.ccopy_reg
_reconstructor
p1
(crepresentations
Solution
p2
c__builtin__
object
p3
NtRp4
(lp5
(lp6
F0.95532806160828476
aF0.0093078558943769651
aF-31.169392392420018
aF-0.001955084916311467
aF157.31236733966057
aF0.020692540854300834
aF-253.14828794759796
aF-0.023007202302372576
aF127.05941863636421
aaF0.00025228037250103714
aI331
a(lp7
ab.ccopy_reg
_reconstructor
p1
(crepresentations
Solution
p2
c__builtin__
object
p3
NtRp4
(lp5
(lp6
F0.95532806160828476
aF0.0093078558943769651
aF-31.169392392420018
aF-0.001955084916311467
aF157.31236733966057
aF0.020692540854300834
aF-253.14828794759796
aF-0.023007202302372576
aF127.05941863636421
aaF0.00025228037250103714
aI331
a(lp7
ab.ccopy_reg
_reconstructor
p1
(crepresentations
Solution
p2
c__builtin__
object
p3
NtRp4
(lp5
(lp6
F0.95532806160828476
aF0.0093078558943769651
aF-31.169392392420018
aF-0.001955084916311467
aF157.31236733966057
aF0.020692540854300834
aF-253.14828794759796
aF-0.023007202302372576
aF127.05941863636421
aaF0.00025228037250103714
aI331
a(lp7
ab.ccopy_reg
_reconstructor
p1
(crepresentations
Solution
p2
c__builtin__
object
p3
NtRp4
(lp5
(lp6
F0.95532806160828476
aF0.0093078558943769651
aF-31.169392392420018
aF-0.001955084916311467
aF157.31236733966057
aF0.020692540854300834
aF-253.14828794759796
aF-0.023007202302372576
aF127.05941863636421
aaF0.00025228037250103714
aI331
a(lp7
ab.ccopy_reg
_reconstructor
p1
(crepresentations
Solution
p2
c__builtin__
object
p3
NtRp4
(lp5
(lp6
F0.95532806160828476
aF0.0093078558943769651
aF-31.169392392420018
aF-0.001955084916311467
aF157.31236733966057
aF0.020692540854300834
aF-253.14828794759796
aF-0.023007202302372576
aF127.05941863636421
aaF0.00025228037250103714
aI331
a(lp7
ab.ccopy_reg
_reconstructor
p1
(crepresentations
Solution
p2
c__builtin__
object
p3
NtRp4
(lp5
(lp6
F0.95532806160828476
aF0.0093078558943769651
aF-31.169392392420018
aF-0.001955084916311467
aF157.31236733966057
aF0.020692540854300834
aF-253.14828794759796
aF-0.023007202302372576
aF127.05941863636421
aaF0.00025228037250103714
aI331
a(lp7
ab.ccopy_reg
_reconstructor
p1
(crepresentations
Solution
p2
c__builtin__
object
p3
NtRp4
(lp5
(lp6
F0.95532806160828476
aF0.0093078558943769651
aF-31.169392392420018
aF-0.001955084916311467
aF157.31236733966057
aF0.020692540854300834
aF-253.14828794759796
aF-0.023007202302372576
aF127.05941863636421
aaF0.00025228037250103714
aI331
a(lp7
ab.ccopy_reg
_reconstructor
p1
(crepresentations
Solution
p2
c__builtin__
object
p3
NtRp4
(lp5
(lp6
F0.95532806160828476
aF0.0093078558943769651
aF-31.169392392420018
aF-0.001955084916311467
aF157.31236733966057
aF0.020692540854300834
aF-253.14828794759796
aF-0.023007202302372576
aF127.05941863636421
aaF0.00025228037250103714
aI331
a(lp7
ab.ccopy_reg
_reconstructor
p1
(crepresentations
Solution
p2
c__builtin__
object
p3
NtRp4
(lp5
(lp6
F0.95532806160828476
aF0.0093078558943769651
aF-31.169392392420018
aF-0.001955084916311467
aF157.31236733966057
aF0.020692540854300834
aF-253.14828794759796
aF-0.023007202302372576
aF127.05941863636421
aaF0.00025228037250103714
aI331
a(lp7
ab.ccopy_reg
_reconstructor
p1
(crepresentations
Solution
p2
c__builtin__
object
p3
NtRp4
(lp5
(lp6
F0.95532806160828476
aF0.0093078558943769651
aF-31.169392392420018
aF-0.001955084916311467
aF157.31236733966057
aF0.020692540854300834
aF-253.14828794759796
aF-0.023007202302372576
aF127.05941863636421
aaF0.00025228037250103714
aI331
a(lp7
ab.ccopy_reg
_reconstructor
p1
(crepresentations
Solution
p2
c__builtin__
object
p3
NtRp4
(lp5
(lp6
F0.98725084846139555
aF0.030613577281362554
aF-31.753536279806013
aF-0.087455057071503667
aF159.40959149653705
aF0.20773162702184472
aF-255.81617368833
aF-0.14228428860910808
aF128.16221057677726
aaI0
aI362
a(lp7
ab.